
server:     file format elf64-x86-64


Disassembly of section .init:

00000000004010a8 <_init>:
  4010a8:	48 83 ec 08          	sub    $0x8,%rsp
  4010ac:	48 8b 05 45 2f 20 00 	mov    0x202f45(%rip),%rax        # 603ff8 <_DYNAMIC+0x210>
  4010b3:	48 85 c0             	test   %rax,%rax
  4010b6:	74 05                	je     4010bd <_init+0x15>
  4010b8:	e8 b3 02 00 00       	callq  401370 <__libc_start_main@plt+0x10>
  4010bd:	48 83 c4 08          	add    $0x8,%rsp
  4010c1:	c3                   	retq   

Disassembly of section .plt:

00000000004010d0 <__printf_chk@plt-0x10>:
  4010d0:	ff 35 32 2f 20 00    	pushq  0x202f32(%rip)        # 604008 <_GLOBAL_OFFSET_TABLE_+0x8>
  4010d6:	ff 25 34 2f 20 00    	jmpq   *0x202f34(%rip)        # 604010 <_GLOBAL_OFFSET_TABLE_+0x10>
  4010dc:	0f 1f 40 00          	nopl   0x0(%rax)

00000000004010e0 <__printf_chk@plt>:
  4010e0:	ff 25 32 2f 20 00    	jmpq   *0x202f32(%rip)        # 604018 <_GLOBAL_OFFSET_TABLE_+0x18>
  4010e6:	68 00 00 00 00       	pushq  $0x0
  4010eb:	e9 e0 ff ff ff       	jmpq   4010d0 <_init+0x28>

00000000004010f0 <uv_tcp_bind@plt>:
  4010f0:	ff 25 2a 2f 20 00    	jmpq   *0x202f2a(%rip)        # 604020 <_GLOBAL_OFFSET_TABLE_+0x20>
  4010f6:	68 01 00 00 00       	pushq  $0x1
  4010fb:	e9 d0 ff ff ff       	jmpq   4010d0 <_init+0x28>

0000000000401100 <_ZSt29_Rb_tree_insert_and_rebalancebPSt18_Rb_tree_node_baseS0_RS_@plt>:
  401100:	ff 25 22 2f 20 00    	jmpq   *0x202f22(%rip)        # 604028 <_GLOBAL_OFFSET_TABLE_+0x28>
  401106:	68 02 00 00 00       	pushq  $0x2
  40110b:	e9 c0 ff ff ff       	jmpq   4010d0 <_init+0x28>

0000000000401110 <uv_run@plt>:
  401110:	ff 25 1a 2f 20 00    	jmpq   *0x202f1a(%rip)        # 604030 <_GLOBAL_OFFSET_TABLE_+0x30>
  401116:	68 03 00 00 00       	pushq  $0x3
  40111b:	e9 b0 ff ff ff       	jmpq   4010d0 <_init+0x28>

0000000000401120 <uv_close@plt>:
  401120:	ff 25 12 2f 20 00    	jmpq   *0x202f12(%rip)        # 604038 <_GLOBAL_OFFSET_TABLE_+0x38>
  401126:	68 04 00 00 00       	pushq  $0x4
  40112b:	e9 a0 ff ff ff       	jmpq   4010d0 <_init+0x28>

0000000000401130 <__cxa_begin_catch@plt>:
  401130:	ff 25 0a 2f 20 00    	jmpq   *0x202f0a(%rip)        # 604040 <_GLOBAL_OFFSET_TABLE_+0x40>
  401136:	68 05 00 00 00       	pushq  $0x5
  40113b:	e9 90 ff ff ff       	jmpq   4010d0 <_init+0x28>

0000000000401140 <uv_write@plt>:
  401140:	ff 25 02 2f 20 00    	jmpq   *0x202f02(%rip)        # 604048 <_GLOBAL_OFFSET_TABLE_+0x48>
  401146:	68 06 00 00 00       	pushq  $0x6
  40114b:	e9 80 ff ff ff       	jmpq   4010d0 <_init+0x28>

0000000000401150 <strlen@plt>:
  401150:	ff 25 fa 2e 20 00    	jmpq   *0x202efa(%rip)        # 604050 <_GLOBAL_OFFSET_TABLE_+0x50>
  401156:	68 07 00 00 00       	pushq  $0x7
  40115b:	e9 70 ff ff ff       	jmpq   4010d0 <_init+0x28>

0000000000401160 <memcmp@plt>:
  401160:	ff 25 f2 2e 20 00    	jmpq   *0x202ef2(%rip)        # 604058 <_GLOBAL_OFFSET_TABLE_+0x58>
  401166:	68 08 00 00 00       	pushq  $0x8
  40116b:	e9 60 ff ff ff       	jmpq   4010d0 <_init+0x28>

0000000000401170 <_ZNSt7__cxx1112basic_stringIcSt11char_traitsIcESaIcEE9_M_assignERKS4_@plt>:
  401170:	ff 25 ea 2e 20 00    	jmpq   *0x202eea(%rip)        # 604060 <_GLOBAL_OFFSET_TABLE_+0x60>
  401176:	68 09 00 00 00       	pushq  $0x9
  40117b:	e9 50 ff ff ff       	jmpq   4010d0 <_init+0x28>

0000000000401180 <memset@plt>:
  401180:	ff 25 e2 2e 20 00    	jmpq   *0x202ee2(%rip)        # 604068 <_GLOBAL_OFFSET_TABLE_+0x68>
  401186:	68 0a 00 00 00       	pushq  $0xa
  40118b:	e9 40 ff ff ff       	jmpq   4010d0 <_init+0x28>

0000000000401190 <__sprintf_chk@plt>:
  401190:	ff 25 da 2e 20 00    	jmpq   *0x202eda(%rip)        # 604070 <_GLOBAL_OFFSET_TABLE_+0x70>
  401196:	68 0b 00 00 00       	pushq  $0xb
  40119b:	e9 30 ff ff ff       	jmpq   4010d0 <_init+0x28>

00000000004011a0 <calloc@plt>:
  4011a0:	ff 25 d2 2e 20 00    	jmpq   *0x202ed2(%rip)        # 604078 <_GLOBAL_OFFSET_TABLE_+0x78>
  4011a6:	68 0c 00 00 00       	pushq  $0xc
  4011ab:	e9 20 ff ff ff       	jmpq   4010d0 <_init+0x28>

00000000004011b0 <_ZSt19__throw_logic_errorPKc@plt>:
  4011b0:	ff 25 ca 2e 20 00    	jmpq   *0x202eca(%rip)        # 604080 <_GLOBAL_OFFSET_TABLE_+0x80>
  4011b6:	68 0d 00 00 00       	pushq  $0xd
  4011bb:	e9 10 ff ff ff       	jmpq   4010d0 <_init+0x28>

00000000004011c0 <uv_listen@plt>:
  4011c0:	ff 25 c2 2e 20 00    	jmpq   *0x202ec2(%rip)        # 604088 <_GLOBAL_OFFSET_TABLE_+0x88>
  4011c6:	68 0e 00 00 00       	pushq  $0xe
  4011cb:	e9 00 ff ff ff       	jmpq   4010d0 <_init+0x28>

00000000004011d0 <uv_accept@plt>:
  4011d0:	ff 25 ba 2e 20 00    	jmpq   *0x202eba(%rip)        # 604090 <_GLOBAL_OFFSET_TABLE_+0x90>
  4011d6:	68 0f 00 00 00       	pushq  $0xf
  4011db:	e9 f0 fe ff ff       	jmpq   4010d0 <_init+0x28>

00000000004011e0 <memcpy@plt>:
  4011e0:	ff 25 b2 2e 20 00    	jmpq   *0x202eb2(%rip)        # 604098 <_GLOBAL_OFFSET_TABLE_+0x98>
  4011e6:	68 10 00 00 00       	pushq  $0x10
  4011eb:	e9 e0 fe ff ff       	jmpq   4010d0 <_init+0x28>

00000000004011f0 <uv_ip4_addr@plt>:
  4011f0:	ff 25 aa 2e 20 00    	jmpq   *0x202eaa(%rip)        # 6040a0 <_GLOBAL_OFFSET_TABLE_+0xa0>
  4011f6:	68 11 00 00 00       	pushq  $0x11
  4011fb:	e9 d0 fe ff ff       	jmpq   4010d0 <_init+0x28>

0000000000401200 <__cxa_atexit@plt>:
  401200:	ff 25 a2 2e 20 00    	jmpq   *0x202ea2(%rip)        # 6040a8 <_GLOBAL_OFFSET_TABLE_+0xa8>
  401206:	68 12 00 00 00       	pushq  $0x12
  40120b:	e9 c0 fe ff ff       	jmpq   4010d0 <_init+0x28>

0000000000401210 <_ZdlPv@plt>:
  401210:	ff 25 9a 2e 20 00    	jmpq   *0x202e9a(%rip)        # 6040b0 <_GLOBAL_OFFSET_TABLE_+0xb0>
  401216:	68 13 00 00 00       	pushq  $0x13
  40121b:	e9 b0 fe ff ff       	jmpq   4010d0 <_init+0x28>

0000000000401220 <_Znwm@plt>:
  401220:	ff 25 92 2e 20 00    	jmpq   *0x202e92(%rip)        # 6040b8 <_GLOBAL_OFFSET_TABLE_+0xb8>
  401226:	68 14 00 00 00       	pushq  $0x14
  40122b:	e9 a0 fe ff ff       	jmpq   4010d0 <_init+0x28>

0000000000401230 <_ZSt18_Rb_tree_decrementPSt18_Rb_tree_node_base@plt>:
  401230:	ff 25 8a 2e 20 00    	jmpq   *0x202e8a(%rip)        # 6040c0 <_GLOBAL_OFFSET_TABLE_+0xc0>
  401236:	68 15 00 00 00       	pushq  $0x15
  40123b:	e9 90 fe ff ff       	jmpq   4010d0 <_init+0x28>

0000000000401240 <uv_tcp_init@plt>:
  401240:	ff 25 82 2e 20 00    	jmpq   *0x202e82(%rip)        # 6040c8 <_GLOBAL_OFFSET_TABLE_+0xc8>
  401246:	68 16 00 00 00       	pushq  $0x16
  40124b:	e9 80 fe ff ff       	jmpq   4010d0 <_init+0x28>

0000000000401250 <__stack_chk_fail@plt>:
  401250:	ff 25 7a 2e 20 00    	jmpq   *0x202e7a(%rip)        # 6040d0 <_GLOBAL_OFFSET_TABLE_+0xd0>
  401256:	68 17 00 00 00       	pushq  $0x17
  40125b:	e9 70 fe ff ff       	jmpq   4010d0 <_init+0x28>

0000000000401260 <free@plt>:
  401260:	ff 25 72 2e 20 00    	jmpq   *0x202e72(%rip)        # 6040d8 <_GLOBAL_OFFSET_TABLE_+0xd8>
  401266:	68 18 00 00 00       	pushq  $0x18
  40126b:	e9 60 fe ff ff       	jmpq   4010d0 <_init+0x28>

0000000000401270 <exit@plt>:
  401270:	ff 25 6a 2e 20 00    	jmpq   *0x202e6a(%rip)        # 6040e0 <_GLOBAL_OFFSET_TABLE_+0xe0>
  401276:	68 19 00 00 00       	pushq  $0x19
  40127b:	e9 50 fe ff ff       	jmpq   4010d0 <_init+0x28>

0000000000401280 <malloc@plt>:
  401280:	ff 25 62 2e 20 00    	jmpq   *0x202e62(%rip)        # 6040e8 <_GLOBAL_OFFSET_TABLE_+0xe8>
  401286:	68 1a 00 00 00       	pushq  $0x1a
  40128b:	e9 40 fe ff ff       	jmpq   4010d0 <_init+0x28>

0000000000401290 <uv_read_start@plt>:
  401290:	ff 25 5a 2e 20 00    	jmpq   *0x202e5a(%rip)        # 6040f0 <_GLOBAL_OFFSET_TABLE_+0xf0>
  401296:	68 1b 00 00 00       	pushq  $0x1b
  40129b:	e9 30 fe ff ff       	jmpq   4010d0 <_init+0x28>

00000000004012a0 <__cxa_rethrow@plt>:
  4012a0:	ff 25 52 2e 20 00    	jmpq   *0x202e52(%rip)        # 6040f8 <_GLOBAL_OFFSET_TABLE_+0xf8>
  4012a6:	68 1c 00 00 00       	pushq  $0x1c
  4012ab:	e9 20 fe ff ff       	jmpq   4010d0 <_init+0x28>

00000000004012b0 <_ZSt24__throw_out_of_range_fmtPKcz@plt>:
  4012b0:	ff 25 4a 2e 20 00    	jmpq   *0x202e4a(%rip)        # 604100 <_GLOBAL_OFFSET_TABLE_+0x100>
  4012b6:	68 1d 00 00 00       	pushq  $0x1d
  4012bb:	e9 10 fe ff ff       	jmpq   4010d0 <_init+0x28>

00000000004012c0 <puts@plt>:
  4012c0:	ff 25 42 2e 20 00    	jmpq   *0x202e42(%rip)        # 604108 <_GLOBAL_OFFSET_TABLE_+0x108>
  4012c6:	68 1e 00 00 00       	pushq  $0x1e
  4012cb:	e9 00 fe ff ff       	jmpq   4010d0 <_init+0x28>

00000000004012d0 <gettimeofday@plt>:
  4012d0:	ff 25 3a 2e 20 00    	jmpq   *0x202e3a(%rip)        # 604110 <_GLOBAL_OFFSET_TABLE_+0x110>
  4012d6:	68 1f 00 00 00       	pushq  $0x1f
  4012db:	e9 f0 fd ff ff       	jmpq   4010d0 <_init+0x28>

00000000004012e0 <__cxa_end_catch@plt>:
  4012e0:	ff 25 32 2e 20 00    	jmpq   *0x202e32(%rip)        # 604118 <_GLOBAL_OFFSET_TABLE_+0x118>
  4012e6:	68 20 00 00 00       	pushq  $0x20
  4012eb:	e9 e0 fd ff ff       	jmpq   4010d0 <_init+0x28>

00000000004012f0 <__gxx_personality_v0@plt>:
  4012f0:	ff 25 2a 2e 20 00    	jmpq   *0x202e2a(%rip)        # 604120 <_GLOBAL_OFFSET_TABLE_+0x120>
  4012f6:	68 21 00 00 00       	pushq  $0x21
  4012fb:	e9 d0 fd ff ff       	jmpq   4010d0 <_init+0x28>

0000000000401300 <__memcpy_chk@plt>:
  401300:	ff 25 22 2e 20 00    	jmpq   *0x202e22(%rip)        # 604128 <_GLOBAL_OFFSET_TABLE_+0x128>
  401306:	68 22 00 00 00       	pushq  $0x22
  40130b:	e9 c0 fd ff ff       	jmpq   4010d0 <_init+0x28>

0000000000401310 <http_parser_execute@plt>:
  401310:	ff 25 1a 2e 20 00    	jmpq   *0x202e1a(%rip)        # 604130 <_GLOBAL_OFFSET_TABLE_+0x130>
  401316:	68 23 00 00 00       	pushq  $0x23
  40131b:	e9 b0 fd ff ff       	jmpq   4010d0 <_init+0x28>

0000000000401320 <_Unwind_Resume@plt>:
  401320:	ff 25 12 2e 20 00    	jmpq   *0x202e12(%rip)        # 604138 <_GLOBAL_OFFSET_TABLE_+0x138>
  401326:	68 24 00 00 00       	pushq  $0x24
  40132b:	e9 a0 fd ff ff       	jmpq   4010d0 <_init+0x28>

0000000000401330 <_ZNSt7__cxx1112basic_stringIcSt11char_traitsIcESaIcEE9_M_createERmm@plt>:
  401330:	ff 25 0a 2e 20 00    	jmpq   *0x202e0a(%rip)        # 604140 <_GLOBAL_OFFSET_TABLE_+0x140>
  401336:	68 25 00 00 00       	pushq  $0x25
  40133b:	e9 90 fd ff ff       	jmpq   4010d0 <_init+0x28>

0000000000401340 <http_parser_init@plt>:
  401340:	ff 25 02 2e 20 00    	jmpq   *0x202e02(%rip)        # 604148 <_GLOBAL_OFFSET_TABLE_+0x148>
  401346:	68 26 00 00 00       	pushq  $0x26
  40134b:	e9 80 fd ff ff       	jmpq   4010d0 <_init+0x28>

0000000000401350 <uv_buf_init@plt>:
  401350:	ff 25 fa 2d 20 00    	jmpq   *0x202dfa(%rip)        # 604150 <_GLOBAL_OFFSET_TABLE_+0x150>
  401356:	68 27 00 00 00       	pushq  $0x27
  40135b:	e9 70 fd ff ff       	jmpq   4010d0 <_init+0x28>

0000000000401360 <__libc_start_main@plt>:
  401360:	ff 25 f2 2d 20 00    	jmpq   *0x202df2(%rip)        # 604158 <_GLOBAL_OFFSET_TABLE_+0x158>
  401366:	68 28 00 00 00       	pushq  $0x28
  40136b:	e9 60 fd ff ff       	jmpq   4010d0 <_init+0x28>

Disassembly of section .plt.got:

0000000000401370 <.plt.got>:
  401370:	ff 25 82 2c 20 00    	jmpq   *0x202c82(%rip)        # 603ff8 <_DYNAMIC+0x210>
  401376:	66 90                	xchg   %ax,%ax

Disassembly of section .text:

0000000000401380 <main>:
  401380:	55                   	push   %rbp
  401381:	ba 02 00 00 00       	mov    $0x2,%edx
  401386:	be 7e 2f 40 00       	mov    $0x402f7e,%esi
  40138b:	bf 01 00 00 00       	mov    $0x1,%edi
  401390:	31 c0                	xor    %eax,%eax
  401392:	48 89 e5             	mov    %rsp,%rbp
  401395:	e8 46 fd ff ff       	callq  4010e0 <__printf_chk@plt>
  40139a:	e8 31 18 00 00       	callq  402bd0 <_Z11bench_mem_2v>
  40139f:	e8 7c 16 00 00       	callq  402a20 <_Z9bench_memv>
  4013a4:	31 c0                	xor    %eax,%eax
  4013a6:	5d                   	pop    %rbp
  4013a7:	c3                   	retq   
  4013a8:	0f 1f 84 00 00 00 00 	nopl   0x0(%rax,%rax,1)
  4013af:	00 

00000000004013b0 <_GLOBAL__sub_I_loop>:
  4013b0:	ba 68 41 60 00       	mov    $0x604168,%edx
  4013b5:	be a0 41 60 00       	mov    $0x6041a0,%esi
  4013ba:	bf 40 2c 40 00       	mov    $0x402c40,%edi
  4013bf:	48 c7 05 d6 2d 20 00 	movq   $0x0,0x202dd6(%rip)        # 6041a0 <rq_handler_chain>
  4013c6:	00 00 00 00 
  4013ca:	48 c7 05 d3 2d 20 00 	movq   $0x0,0x202dd3(%rip)        # 6041a8 <rq_handler_chain+0x8>
  4013d1:	00 00 00 00 
  4013d5:	48 c7 05 d0 2d 20 00 	movq   $0x0,0x202dd0(%rip)        # 6041b0 <rq_handler_chain+0x10>
  4013dc:	00 00 00 00 
  4013e0:	e9 1b fe ff ff       	jmpq   401200 <__cxa_atexit@plt>
  4013e5:	66 2e 0f 1f 84 00 00 	nopw   %cs:0x0(%rax,%rax,1)
  4013ec:	00 00 00 
  4013ef:	90                   	nop

00000000004013f0 <_start>:
  4013f0:	31 ed                	xor    %ebp,%ebp
  4013f2:	49 89 d1             	mov    %rdx,%r9
  4013f5:	5e                   	pop    %rsi
  4013f6:	48 89 e2             	mov    %rsp,%rdx
  4013f9:	48 83 e4 f0          	and    $0xfffffffffffffff0,%rsp
  4013fd:	50                   	push   %rax
  4013fe:	54                   	push   %rsp
  4013ff:	49 c7 c0 d0 2c 40 00 	mov    $0x402cd0,%r8
  401406:	48 c7 c1 60 2c 40 00 	mov    $0x402c60,%rcx
  40140d:	48 c7 c7 80 13 40 00 	mov    $0x401380,%rdi
  401414:	e8 47 ff ff ff       	callq  401360 <__libc_start_main@plt>
  401419:	f4                   	hlt    
  40141a:	66 0f 1f 44 00 00    	nopw   0x0(%rax,%rax,1)

0000000000401420 <deregister_tm_clones>:
  401420:	b8 77 41 60 00       	mov    $0x604177,%eax
  401425:	55                   	push   %rbp
  401426:	48 2d 70 41 60 00    	sub    $0x604170,%rax
  40142c:	48 83 f8 0e          	cmp    $0xe,%rax
  401430:	48 89 e5             	mov    %rsp,%rbp
  401433:	76 1b                	jbe    401450 <deregister_tm_clones+0x30>
  401435:	b8 00 00 00 00       	mov    $0x0,%eax
  40143a:	48 85 c0             	test   %rax,%rax
  40143d:	74 11                	je     401450 <deregister_tm_clones+0x30>
  40143f:	5d                   	pop    %rbp
  401440:	bf 70 41 60 00       	mov    $0x604170,%edi
  401445:	ff e0                	jmpq   *%rax
  401447:	66 0f 1f 84 00 00 00 	nopw   0x0(%rax,%rax,1)
  40144e:	00 00 
  401450:	5d                   	pop    %rbp
  401451:	c3                   	retq   
  401452:	0f 1f 40 00          	nopl   0x0(%rax)
  401456:	66 2e 0f 1f 84 00 00 	nopw   %cs:0x0(%rax,%rax,1)
  40145d:	00 00 00 

0000000000401460 <register_tm_clones>:
  401460:	be 70 41 60 00       	mov    $0x604170,%esi
  401465:	55                   	push   %rbp
  401466:	48 81 ee 70 41 60 00 	sub    $0x604170,%rsi
  40146d:	48 c1 fe 03          	sar    $0x3,%rsi
  401471:	48 89 e5             	mov    %rsp,%rbp
  401474:	48 89 f0             	mov    %rsi,%rax
  401477:	48 c1 e8 3f          	shr    $0x3f,%rax
  40147b:	48 01 c6             	add    %rax,%rsi
  40147e:	48 d1 fe             	sar    %rsi
  401481:	74 15                	je     401498 <register_tm_clones+0x38>
  401483:	b8 00 00 00 00       	mov    $0x0,%eax
  401488:	48 85 c0             	test   %rax,%rax
  40148b:	74 0b                	je     401498 <register_tm_clones+0x38>
  40148d:	5d                   	pop    %rbp
  40148e:	bf 70 41 60 00       	mov    $0x604170,%edi
  401493:	ff e0                	jmpq   *%rax
  401495:	0f 1f 00             	nopl   (%rax)
  401498:	5d                   	pop    %rbp
  401499:	c3                   	retq   
  40149a:	66 0f 1f 44 00 00    	nopw   0x0(%rax,%rax,1)

00000000004014a0 <__do_global_dtors_aux>:
  4014a0:	80 3d d9 2c 20 00 00 	cmpb   $0x0,0x202cd9(%rip)        # 604180 <completed.7594>
  4014a7:	75 11                	jne    4014ba <__do_global_dtors_aux+0x1a>
  4014a9:	55                   	push   %rbp
  4014aa:	48 89 e5             	mov    %rsp,%rbp
  4014ad:	e8 6e ff ff ff       	callq  401420 <deregister_tm_clones>
  4014b2:	5d                   	pop    %rbp
  4014b3:	c6 05 c6 2c 20 00 01 	movb   $0x1,0x202cc6(%rip)        # 604180 <completed.7594>
  4014ba:	f3 c3                	repz retq 
  4014bc:	0f 1f 40 00          	nopl   0x0(%rax)

00000000004014c0 <frame_dummy>:
  4014c0:	bf e0 3d 60 00       	mov    $0x603de0,%edi
  4014c5:	48 83 3f 00          	cmpq   $0x0,(%rdi)
  4014c9:	75 05                	jne    4014d0 <frame_dummy+0x10>
  4014cb:	eb 93                	jmp    401460 <register_tm_clones>
  4014cd:	0f 1f 00             	nopl   (%rax)
  4014d0:	b8 00 00 00 00       	mov    $0x0,%eax
  4014d5:	48 85 c0             	test   %rax,%rax
  4014d8:	74 f1                	je     4014cb <frame_dummy+0xb>
  4014da:	55                   	push   %rbp
  4014db:	48 89 e5             	mov    %rsp,%rbp
  4014de:	ff d0                	callq  *%rax
  4014e0:	5d                   	pop    %rbp
  4014e1:	e9 7a ff ff ff       	jmpq   401460 <register_tm_clones>
  4014e6:	66 2e 0f 1f 84 00 00 	nopw   %cs:0x0(%rax,%rax,1)
  4014ed:	00 00 00 

00000000004014f0 <_Z16handle_alloc_bufP11uv_handle_smP8uv_buf_t>:
  4014f0:	55                   	push   %rbp
  4014f1:	48 89 f7             	mov    %rsi,%rdi
  4014f4:	48 89 e5             	mov    %rsp,%rbp
  4014f7:	41 54                	push   %r12
  4014f9:	53                   	push   %rbx
  4014fa:	49 89 f4             	mov    %rsi,%r12
  4014fd:	48 89 d3             	mov    %rdx,%rbx
  401500:	e8 7b fd ff ff       	callq  401280 <malloc@plt>
  401505:	4c 89 63 08          	mov    %r12,0x8(%rbx)
  401509:	48 89 03             	mov    %rax,(%rbx)
  40150c:	5b                   	pop    %rbx
  40150d:	41 5c                	pop    %r12
  40150f:	5d                   	pop    %rbp
  401510:	c3                   	retq   
  401511:	0f 1f 44 00 00       	nopl   0x0(%rax,%rax,1)
  401516:	66 2e 0f 1f 84 00 00 	nopw   %cs:0x0(%rax,%rax,1)
  40151d:	00 00 00 

0000000000401520 <_Z19handle_after_writerP10uv_write_si>:
  401520:	55                   	push   %rbp
  401521:	48 89 e5             	mov    %rsp,%rbp
  401524:	53                   	push   %rbx
  401525:	48 89 fb             	mov    %rdi,%rbx
  401528:	48 83 ec 08          	sub    $0x8,%rsp
  40152c:	85 f6                	test   %esi,%esi
  40152e:	74 0a                	je     40153a <_Z19handle_after_writerP10uv_write_si+0x1a>
  401530:	bf e4 2c 40 00       	mov    $0x402ce4,%edi
  401535:	e8 86 fd ff ff       	callq  4012c0 <puts@plt>
  40153a:	48 83 c4 08          	add    $0x8,%rsp
  40153e:	48 89 df             	mov    %rbx,%rdi
  401541:	5b                   	pop    %rbx
  401542:	5d                   	pop    %rbp
  401543:	e9 18 fd ff ff       	jmpq   401260 <free@plt>
  401548:	0f 1f 84 00 00 00 00 	nopl   0x0(%rax,%rax,1)
  40154f:	00 

0000000000401550 <_Z17handle_after_readP11uv_stream_slPK8uv_buf_t>:
  401550:	55                   	push   %rbp
  401551:	48 85 f6             	test   %rsi,%rsi
  401554:	48 89 e5             	mov    %rsp,%rbp
  401557:	41 56                	push   %r14
  401559:	41 55                	push   %r13
  40155b:	49 89 f5             	mov    %rsi,%r13
  40155e:	41 54                	push   %r12
  401560:	49 89 fc             	mov    %rdi,%r12
  401563:	53                   	push   %rbx
  401564:	0f 88 d6 00 00 00    	js     401640 <_Z17handle_after_readP11uv_stream_slPK8uv_buf_t+0xf0>
  40156a:	48 89 d3             	mov    %rdx,%rbx
  40156d:	0f 84 05 01 00 00    	je     401678 <_Z17handle_after_readP11uv_stream_slPK8uv_buf_t+0x128>
  401573:	48 8b 05 2e 2c 20 00 	mov    0x202c2e(%rip),%rax        # 6041a8 <rq_handler_chain+0x8>
  40157a:	48 2b 05 1f 2c 20 00 	sub    0x202c1f(%rip),%rax        # 6041a0 <rq_handler_chain>
  401581:	45 31 f6             	xor    %r14d,%r14d
  401584:	48 c1 f8 03          	sar    $0x3,%rax
  401588:	48 85 c0             	test   %rax,%rax
  40158b:	74 50                	je     4015dd <_Z17handle_after_readP11uv_stream_slPK8uv_buf_t+0x8d>
  40158d:	0f 1f 00             	nopl   (%rax)
  401590:	bf fb 2c 40 00       	mov    $0x402cfb,%edi
  401595:	e8 26 fd ff ff       	callq  4012c0 <puts@plt>
  40159a:	48 8b 05 ff 2b 20 00 	mov    0x202bff(%rip),%rax        # 6041a0 <rq_handler_chain>
  4015a1:	48 8b 15 00 2c 20 00 	mov    0x202c00(%rip),%rdx        # 6041a8 <rq_handler_chain+0x8>
  4015a8:	48 29 c2             	sub    %rax,%rdx
  4015ab:	48 c1 fa 03          	sar    $0x3,%rdx
  4015af:	4c 39 f2             	cmp    %r14,%rdx
  4015b2:	0f 86 d0 00 00 00    	jbe    401688 <_Z17handle_after_readP11uv_stream_slPK8uv_buf_t+0x138>
  4015b8:	4c 89 e6             	mov    %r12,%rsi
  4015bb:	48 8b 3b             	mov    (%rbx),%rdi
  4015be:	42 ff 14 f0          	callq  *(%rax,%r14,8)
  4015c2:	48 8b 05 df 2b 20 00 	mov    0x202bdf(%rip),%rax        # 6041a8 <rq_handler_chain+0x8>
  4015c9:	48 2b 05 d0 2b 20 00 	sub    0x202bd0(%rip),%rax        # 6041a0 <rq_handler_chain>
  4015d0:	49 83 c6 01          	add    $0x1,%r14
  4015d4:	48 c1 f8 03          	sar    $0x3,%rax
  4015d8:	4c 39 f0             	cmp    %r14,%rax
  4015db:	77 b3                	ja     401590 <_Z17handle_after_readP11uv_stream_slPK8uv_buf_t+0x40>
  4015dd:	e8 fe 10 00 00       	callq  4026e0 <_Z15ud_session_initv>
  4015e2:	48 8b 3d d7 2b 20 00 	mov    0x202bd7(%rip),%rdi        # 6041c0 <parser>
  4015e9:	48 8b 13             	mov    (%rbx),%rdx
  4015ec:	4c 89 e9             	mov    %r13,%rcx
  4015ef:	4c 89 20             	mov    %r12,(%rax)
  4015f2:	be e0 41 60 00       	mov    $0x6041e0,%esi
  4015f7:	48 89 47 18          	mov    %rax,0x18(%rdi)
  4015fb:	e8 10 fd ff ff       	callq  401310 <http_parser_execute@plt>
  401600:	48 63 d0             	movslq %eax,%rdx
  401603:	49 39 d5             	cmp    %rdx,%r13
  401606:	74 20                	je     401628 <_Z17handle_after_readP11uv_stream_slPK8uv_buf_t+0xd8>
  401608:	89 c2                	mov    %eax,%edx
  40160a:	bf 01 00 00 00       	mov    $0x1,%edi
  40160f:	4c 89 e9             	mov    %r13,%rcx
  401612:	be 08 2d 40 00       	mov    $0x402d08,%esi
  401617:	31 c0                	xor    %eax,%eax
  401619:	e8 c2 fa ff ff       	callq  4010e0 <__printf_chk@plt>
  40161e:	bf 1d 2d 40 00       	mov    $0x402d1d,%edi
  401623:	e8 98 fc ff ff       	callq  4012c0 <puts@plt>
  401628:	48 8b 3b             	mov    (%rbx),%rdi
  40162b:	48 85 ff             	test   %rdi,%rdi
  40162e:	74 38                	je     401668 <_Z17handle_after_readP11uv_stream_slPK8uv_buf_t+0x118>
  401630:	5b                   	pop    %rbx
  401631:	41 5c                	pop    %r12
  401633:	41 5d                	pop    %r13
  401635:	41 5e                	pop    %r14
  401637:	5d                   	pop    %rbp
  401638:	e9 23 fc ff ff       	jmpq   401260 <free@plt>
  40163d:	0f 1f 00             	nopl   (%rax)
  401640:	48 81 fe 01 f0 ff ff 	cmp    $0xfffffffffffff001,%rsi
  401647:	74 0a                	je     401653 <_Z17handle_after_readP11uv_stream_slPK8uv_buf_t+0x103>
  401649:	bf f0 2c 40 00       	mov    $0x402cf0,%edi
  40164e:	e8 6d fc ff ff       	callq  4012c0 <puts@plt>
  401653:	5b                   	pop    %rbx
  401654:	4c 89 e7             	mov    %r12,%rdi
  401657:	31 f6                	xor    %esi,%esi
  401659:	41 5c                	pop    %r12
  40165b:	41 5d                	pop    %r13
  40165d:	41 5e                	pop    %r14
  40165f:	5d                   	pop    %rbp
  401660:	e9 bb fa ff ff       	jmpq   401120 <uv_close@plt>
  401665:	0f 1f 00             	nopl   (%rax)
  401668:	5b                   	pop    %rbx
  401669:	41 5c                	pop    %r12
  40166b:	41 5d                	pop    %r13
  40166d:	41 5e                	pop    %r14
  40166f:	5d                   	pop    %rbp
  401670:	c3                   	retq   
  401671:	0f 1f 80 00 00 00 00 	nopl   0x0(%rax)
  401678:	5b                   	pop    %rbx
  401679:	41 5c                	pop    %r12
  40167b:	41 5d                	pop    %r13
  40167d:	41 5e                	pop    %r14
  40167f:	5d                   	pop    %rbp
  401680:	48 8b 3a             	mov    (%rdx),%rdi
  401683:	e9 d8 fb ff ff       	jmpq   401260 <free@plt>
  401688:	4c 89 f6             	mov    %r14,%rsi
  40168b:	bf 80 2d 40 00       	mov    $0x402d80,%edi
  401690:	31 c0                	xor    %eax,%eax
  401692:	e8 19 fc ff ff       	callq  4012b0 <_ZSt24__throw_out_of_range_fmtPKcz@plt>
  401697:	90                   	nop
  401698:	0f 1f 84 00 00 00 00 	nopl   0x0(%rax,%rax,1)
  40169f:	00 

00000000004016a0 <_ZNSt7__cxx1112basic_stringIcSt11char_traitsIcESaIcEE12_M_constructIPKcEEvT_S8_St20forward_iterator_tag.isra.31>:
  4016a0:	55                   	push   %rbp
  4016a1:	48 89 e5             	mov    %rsp,%rbp
  4016a4:	41 55                	push   %r13
  4016a6:	41 54                	push   %r12
  4016a8:	53                   	push   %rbx
  4016a9:	49 89 fc             	mov    %rdi,%r12
  4016ac:	49 89 f5             	mov    %rsi,%r13
  4016af:	48 83 ec 18          	sub    $0x18,%rsp
  4016b3:	64 48 8b 04 25 28 00 	mov    %fs:0x28,%rax
  4016ba:	00 00 
  4016bc:	48 89 45 d8          	mov    %rax,-0x28(%rbp)
  4016c0:	31 c0                	xor    %eax,%eax
  4016c2:	48 85 f6             	test   %rsi,%rsi
  4016c5:	75 19                	jne    4016e0 <_ZNSt7__cxx1112basic_stringIcSt11char_traitsIcESaIcEE12_M_constructIPKcEEvT_S8_St20forward_iterator_tag.isra.31+0x40>
  4016c7:	48 85 d2             	test   %rdx,%rdx
  4016ca:	74 14                	je     4016e0 <_ZNSt7__cxx1112basic_stringIcSt11char_traitsIcESaIcEE12_M_constructIPKcEEvT_S8_St20forward_iterator_tag.isra.31+0x40>
  4016cc:	bf d0 2d 40 00       	mov    $0x402dd0,%edi
  4016d1:	e8 da fa ff ff       	callq  4011b0 <_ZSt19__throw_logic_errorPKc@plt>
  4016d6:	66 2e 0f 1f 84 00 00 	nopw   %cs:0x0(%rax,%rax,1)
  4016dd:	00 00 00 
  4016e0:	48 89 d3             	mov    %rdx,%rbx
  4016e3:	4c 29 eb             	sub    %r13,%rbx
  4016e6:	48 83 fb 0f          	cmp    $0xf,%rbx
  4016ea:	48 89 5d d0          	mov    %rbx,-0x30(%rbp)
  4016ee:	77 40                	ja     401730 <_ZNSt7__cxx1112basic_stringIcSt11char_traitsIcESaIcEE12_M_constructIPKcEEvT_S8_St20forward_iterator_tag.isra.31+0x90>
  4016f0:	49 8b 14 24          	mov    (%r12),%rdx
  4016f4:	48 83 fb 01          	cmp    $0x1,%rbx
  4016f8:	48 89 d7             	mov    %rdx,%rdi
  4016fb:	74 63                	je     401760 <_ZNSt7__cxx1112basic_stringIcSt11char_traitsIcESaIcEE12_M_constructIPKcEEvT_S8_St20forward_iterator_tag.isra.31+0xc0>
  4016fd:	48 85 db             	test   %rbx,%rbx
  401700:	75 4c                	jne    40174e <_ZNSt7__cxx1112basic_stringIcSt11char_traitsIcESaIcEE12_M_constructIPKcEEvT_S8_St20forward_iterator_tag.isra.31+0xae>
  401702:	48 8b 45 d0          	mov    -0x30(%rbp),%rax
  401706:	49 89 44 24 08       	mov    %rax,0x8(%r12)
  40170b:	c6 04 02 00          	movb   $0x0,(%rdx,%rax,1)
  40170f:	48 8b 45 d8          	mov    -0x28(%rbp),%rax
  401713:	64 48 33 04 25 28 00 	xor    %fs:0x28,%rax
  40171a:	00 00 
  40171c:	75 4f                	jne    40176d <_ZNSt7__cxx1112basic_stringIcSt11char_traitsIcESaIcEE12_M_constructIPKcEEvT_S8_St20forward_iterator_tag.isra.31+0xcd>
  40171e:	48 83 c4 18          	add    $0x18,%rsp
  401722:	5b                   	pop    %rbx
  401723:	41 5c                	pop    %r12
  401725:	41 5d                	pop    %r13
  401727:	5d                   	pop    %rbp
  401728:	c3                   	retq   
  401729:	0f 1f 80 00 00 00 00 	nopl   0x0(%rax)
  401730:	48 8d 75 d0          	lea    -0x30(%rbp),%rsi
  401734:	4c 89 e7             	mov    %r12,%rdi
  401737:	31 d2                	xor    %edx,%edx
  401739:	e8 f2 fb ff ff       	callq  401330 <_ZNSt7__cxx1112basic_stringIcSt11char_traitsIcESaIcEE9_M_createERmm@plt>
  40173e:	48 89 c7             	mov    %rax,%rdi
  401741:	49 89 04 24          	mov    %rax,(%r12)
  401745:	48 8b 45 d0          	mov    -0x30(%rbp),%rax
  401749:	49 89 44 24 10       	mov    %rax,0x10(%r12)
  40174e:	48 89 da             	mov    %rbx,%rdx
  401751:	4c 89 ee             	mov    %r13,%rsi
  401754:	e8 87 fa ff ff       	callq  4011e0 <memcpy@plt>
  401759:	49 8b 14 24          	mov    (%r12),%rdx
  40175d:	eb a3                	jmp    401702 <_ZNSt7__cxx1112basic_stringIcSt11char_traitsIcESaIcEE12_M_constructIPKcEEvT_S8_St20forward_iterator_tag.isra.31+0x62>
  40175f:	90                   	nop
  401760:	41 0f b6 45 00       	movzbl 0x0(%r13),%eax
  401765:	88 02                	mov    %al,(%rdx)
  401767:	49 8b 14 24          	mov    (%r12),%rdx
  40176b:	eb 95                	jmp    401702 <_ZNSt7__cxx1112basic_stringIcSt11char_traitsIcESaIcEE12_M_constructIPKcEEvT_S8_St20forward_iterator_tag.isra.31+0x62>
  40176d:	e8 de fa ff ff       	callq  401250 <__stack_chk_fail@plt>
  401772:	0f 1f 40 00          	nopl   0x0(%rax)
  401776:	66 2e 0f 1f 84 00 00 	nopw   %cs:0x0(%rax,%rax,1)
  40177d:	00 00 00 

0000000000401780 <_Z21handle_new_connectionP11uv_stream_si>:
  401780:	85 f6                	test   %esi,%esi
  401782:	78 5c                	js     4017e0 <_Z21handle_new_connectionP11uv_stream_si+0x60>
  401784:	55                   	push   %rbp
  401785:	48 89 e5             	mov    %rsp,%rbp
  401788:	41 54                	push   %r12
  40178a:	53                   	push   %rbx
  40178b:	48 89 fb             	mov    %rdi,%rbx
  40178e:	bf f8 00 00 00       	mov    $0xf8,%edi
  401793:	e8 e8 fa ff ff       	callq  401280 <malloc@plt>
  401798:	48 8b 3d 91 2a 20 00 	mov    0x202a91(%rip),%rdi        # 604230 <loop>
  40179f:	49 89 c4             	mov    %rax,%r12
  4017a2:	48 89 c6             	mov    %rax,%rsi
  4017a5:	e8 96 fa ff ff       	callq  401240 <uv_tcp_init@plt>
  4017aa:	4c 89 e6             	mov    %r12,%rsi
  4017ad:	48 89 df             	mov    %rbx,%rdi
  4017b0:	e8 1b fa ff ff       	callq  4011d0 <uv_accept@plt>
  4017b5:	85 c0                	test   %eax,%eax
  4017b7:	74 07                	je     4017c0 <_Z21handle_new_connectionP11uv_stream_si+0x40>
  4017b9:	5b                   	pop    %rbx
  4017ba:	41 5c                	pop    %r12
  4017bc:	5d                   	pop    %rbp
  4017bd:	c3                   	retq   
  4017be:	66 90                	xchg   %ax,%ax
  4017c0:	bf 3e 2d 40 00       	mov    $0x402d3e,%edi
  4017c5:	e8 f6 fa ff ff       	callq  4012c0 <puts@plt>
  4017ca:	5b                   	pop    %rbx
  4017cb:	4c 89 e7             	mov    %r12,%rdi
  4017ce:	ba 50 15 40 00       	mov    $0x401550,%edx
  4017d3:	be f0 14 40 00       	mov    $0x4014f0,%esi
  4017d8:	41 5c                	pop    %r12
  4017da:	5d                   	pop    %rbp
  4017db:	e9 b0 fa ff ff       	jmpq   401290 <uv_read_start@plt>
  4017e0:	bf 29 2d 40 00       	mov    $0x402d29,%edi
  4017e5:	e9 d6 fa ff ff       	jmpq   4012c0 <puts@plt>
  4017ea:	66 0f 1f 44 00 00    	nopw   0x0(%rax,%rax,1)

00000000004017f0 <_Z16handle_shut_downP13uv_shutdown_si>:
  4017f0:	f3 c3                	repz retq 
  4017f2:	0f 1f 40 00          	nopl   0x0(%rax)
  4017f6:	66 2e 0f 1f 84 00 00 	nopw   %cs:0x0(%rax,%rax,1)
  4017fd:	00 00 00 

0000000000401800 <_Z16on_message_beginP11http_parser>:
  401800:	31 c0                	xor    %eax,%eax
  401802:	c3                   	retq   
  401803:	0f 1f 00             	nopl   (%rax)
  401806:	66 2e 0f 1f 84 00 00 	nopw   %cs:0x0(%rax,%rax,1)
  40180d:	00 00 00 

0000000000401810 <_Z6on_urlP11http_parserPKcm>:
  401810:	55                   	push   %rbp
  401811:	b9 80 00 00 00       	mov    $0x80,%ecx
  401816:	48 89 e5             	mov    %rsp,%rbp
  401819:	53                   	push   %rbx
  40181a:	48 81 ec 38 04 00 00 	sub    $0x438,%rsp
  401821:	48 8b 5f 18          	mov    0x18(%rdi),%rbx
  401825:	48 8d bd e0 fb ff ff 	lea    -0x420(%rbp),%rdi
  40182c:	64 48 8b 04 25 28 00 	mov    %fs:0x28,%rax
  401833:	00 00 
  401835:	48 89 45 e8          	mov    %rax,-0x18(%rbp)
  401839:	31 c0                	xor    %eax,%eax
  40183b:	f3 48 ab             	rep stos %rax,%es:(%rdi)
  40183e:	48 8d bd e0 fb ff ff 	lea    -0x420(%rbp),%rdi
  401845:	b9 00 04 00 00       	mov    $0x400,%ecx
  40184a:	e8 b1 fa ff ff       	callq  401300 <__memcpy_chk@plt>
  40184f:	48 8d 85 c0 fb ff ff 	lea    -0x440(%rbp),%rax
  401856:	48 8d 95 e0 fb ff ff 	lea    -0x420(%rbp),%rdx
  40185d:	48 83 c0 10          	add    $0x10,%rax
  401861:	48 89 85 c0 fb ff ff 	mov    %rax,-0x440(%rbp)
  401868:	8b 0a                	mov    (%rdx),%ecx
  40186a:	48 83 c2 04          	add    $0x4,%rdx
  40186e:	8d 81 ff fe fe fe    	lea    -0x1010101(%rcx),%eax
  401874:	f7 d1                	not    %ecx
  401876:	21 c8                	and    %ecx,%eax
  401878:	25 80 80 80 80       	and    $0x80808080,%eax
  40187d:	74 e9                	je     401868 <_Z6on_urlP11http_parserPKcm+0x58>
  40187f:	89 c1                	mov    %eax,%ecx
  401881:	48 8d bd c0 fb ff ff 	lea    -0x440(%rbp),%rdi
  401888:	c1 e9 10             	shr    $0x10,%ecx
  40188b:	a9 80 80 00 00       	test   $0x8080,%eax
  401890:	0f 44 c1             	cmove  %ecx,%eax
  401893:	48 8d 4a 02          	lea    0x2(%rdx),%rcx
  401897:	89 c6                	mov    %eax,%esi
  401899:	48 0f 44 d1          	cmove  %rcx,%rdx
  40189d:	40 00 c6             	add    %al,%sil
  4018a0:	48 8d b5 e0 fb ff ff 	lea    -0x420(%rbp),%rsi
  4018a7:	48 83 da 03          	sbb    $0x3,%rdx
  4018ab:	e8 f0 fd ff ff       	callq  4016a0 <_ZNSt7__cxx1112basic_stringIcSt11char_traitsIcESaIcEE12_M_constructIPKcEEvT_S8_St20forward_iterator_tag.isra.31>
  4018b0:	48 8d 7b 28          	lea    0x28(%rbx),%rdi
  4018b4:	48 8d b5 c0 fb ff ff 	lea    -0x440(%rbp),%rsi
  4018bb:	e8 b0 f8 ff ff       	callq  401170 <_ZNSt7__cxx1112basic_stringIcSt11char_traitsIcESaIcEE9_M_assignERKS4_@plt>
  4018c0:	48 8b bd c0 fb ff ff 	mov    -0x440(%rbp),%rdi
  4018c7:	48 8d 85 c0 fb ff ff 	lea    -0x440(%rbp),%rax
  4018ce:	48 83 c0 10          	add    $0x10,%rax
  4018d2:	48 39 c7             	cmp    %rax,%rdi
  4018d5:	74 05                	je     4018dc <_Z6on_urlP11http_parserPKcm+0xcc>
  4018d7:	e8 34 f9 ff ff       	callq  401210 <_ZdlPv@plt>
  4018dc:	31 c0                	xor    %eax,%eax
  4018de:	48 8b 5d e8          	mov    -0x18(%rbp),%rbx
  4018e2:	64 48 33 1c 25 28 00 	xor    %fs:0x28,%rbx
  4018e9:	00 00 
  4018eb:	75 0a                	jne    4018f7 <_Z6on_urlP11http_parserPKcm+0xe7>
  4018ed:	48 81 c4 38 04 00 00 	add    $0x438,%rsp
  4018f4:	5b                   	pop    %rbx
  4018f5:	5d                   	pop    %rbp
  4018f6:	c3                   	retq   
  4018f7:	e8 54 f9 ff ff       	callq  401250 <__stack_chk_fail@plt>
  4018fc:	48 89 c3             	mov    %rax,%rbx
  4018ff:	48 8d 85 c0 fb ff ff 	lea    -0x440(%rbp),%rax
  401906:	48 8b bd c0 fb ff ff 	mov    -0x440(%rbp),%rdi
  40190d:	48 8d 50 10          	lea    0x10(%rax),%rdx
  401911:	48 39 d7             	cmp    %rdx,%rdi
  401914:	74 05                	je     40191b <_Z6on_urlP11http_parserPKcm+0x10b>
  401916:	e8 f5 f8 ff ff       	callq  401210 <_ZdlPv@plt>
  40191b:	48 89 df             	mov    %rbx,%rdi
  40191e:	e8 fd f9 ff ff       	callq  401320 <_Unwind_Resume@plt>
  401923:	0f 1f 00             	nopl   (%rax)
  401926:	66 2e 0f 1f 84 00 00 	nopw   %cs:0x0(%rax,%rax,1)
  40192d:	00 00 00 

0000000000401930 <_Z9on_statusP11http_parserPKcm>:
  401930:	31 c0                	xor    %eax,%eax
  401932:	c3                   	retq   
  401933:	0f 1f 00             	nopl   (%rax)
  401936:	66 2e 0f 1f 84 00 00 	nopw   %cs:0x0(%rax,%rax,1)
  40193d:	00 00 00 

0000000000401940 <_Z15on_header_fieldP11http_parserPKcm>:
  401940:	55                   	push   %rbp
  401941:	b9 08 00 00 00       	mov    $0x8,%ecx
  401946:	48 89 e5             	mov    %rsp,%rbp
  401949:	53                   	push   %rbx
  40194a:	48 89 fb             	mov    %rdi,%rbx
  40194d:	48 8d 7d a0          	lea    -0x60(%rbp),%rdi
  401951:	4c 8d 45 a0          	lea    -0x60(%rbp),%r8
  401955:	48 83 ec 58          	sub    $0x58,%rsp
  401959:	64 48 8b 04 25 28 00 	mov    %fs:0x28,%rax
  401960:	00 00 
  401962:	48 89 45 e8          	mov    %rax,-0x18(%rbp)
  401966:	31 c0                	xor    %eax,%eax
  401968:	48 83 fa 40          	cmp    $0x40,%rdx
  40196c:	f3 48 ab             	rep stos %rax,%es:(%rdi)
  40196f:	b8 40 00 00 00       	mov    $0x40,%eax
  401974:	4c 89 c7             	mov    %r8,%rdi
  401977:	b9 40 00 00 00       	mov    $0x40,%ecx
  40197c:	48 0f 47 d0          	cmova  %rax,%rdx
  401980:	e8 7b f9 ff ff       	callq  401300 <__memcpy_chk@plt>
  401985:	49 89 c0             	mov    %rax,%r8
  401988:	48 89 c2             	mov    %rax,%rdx
  40198b:	8b 0a                	mov    (%rdx),%ecx
  40198d:	48 83 c2 04          	add    $0x4,%rdx
  401991:	8d 81 ff fe fe fe    	lea    -0x1010101(%rcx),%eax
  401997:	f7 d1                	not    %ecx
  401999:	21 c8                	and    %ecx,%eax
  40199b:	25 80 80 80 80       	and    $0x80808080,%eax
  4019a0:	74 e9                	je     40198b <_Z15on_header_fieldP11http_parserPKcm+0x4b>
  4019a2:	89 c1                	mov    %eax,%ecx
  4019a4:	48 8b 7b 18          	mov    0x18(%rbx),%rdi
  4019a8:	c1 e9 10             	shr    $0x10,%ecx
  4019ab:	a9 80 80 00 00       	test   $0x8080,%eax
  4019b0:	0f 44 c1             	cmove  %ecx,%eax
  4019b3:	48 8d 4a 02          	lea    0x2(%rdx),%rcx
  4019b7:	89 c6                	mov    %eax,%esi
  4019b9:	48 0f 44 d1          	cmove  %rcx,%rdx
  4019bd:	40 00 c6             	add    %al,%sil
  4019c0:	4c 89 c6             	mov    %r8,%rsi
  4019c3:	48 83 da 03          	sbb    $0x3,%rdx
  4019c7:	48 83 c7 48          	add    $0x48,%rdi
  4019cb:	4c 29 c2             	sub    %r8,%rdx
  4019ce:	e8 0d f8 ff ff       	callq  4011e0 <memcpy@plt>
  4019d3:	31 c0                	xor    %eax,%eax
  4019d5:	48 8b 5d e8          	mov    -0x18(%rbp),%rbx
  4019d9:	64 48 33 1c 25 28 00 	xor    %fs:0x28,%rbx
  4019e0:	00 00 
  4019e2:	75 07                	jne    4019eb <_Z15on_header_fieldP11http_parserPKcm+0xab>
  4019e4:	48 83 c4 58          	add    $0x58,%rsp
  4019e8:	5b                   	pop    %rbx
  4019e9:	5d                   	pop    %rbp
  4019ea:	c3                   	retq   
  4019eb:	e8 60 f8 ff ff       	callq  401250 <__stack_chk_fail@plt>

00000000004019f0 <_Z19on_headers_completeP11http_parser>:
  4019f0:	31 c0                	xor    %eax,%eax
  4019f2:	c3                   	retq   
  4019f3:	0f 1f 00             	nopl   (%rax)
  4019f6:	66 2e 0f 1f 84 00 00 	nopw   %cs:0x0(%rax,%rax,1)
  4019fd:	00 00 00 

0000000000401a00 <_Z7on_bodyP11http_parserPKcm>:
  401a00:	31 c0                	xor    %eax,%eax
  401a02:	c3                   	retq   
  401a03:	0f 1f 00             	nopl   (%rax)
  401a06:	66 2e 0f 1f 84 00 00 	nopw   %cs:0x0(%rax,%rax,1)
  401a0d:	00 00 00 

0000000000401a10 <_Z11response_okPKc>:
  401a10:	55                   	push   %rbp
  401a11:	48 89 e5             	mov    %rsp,%rbp
  401a14:	41 55                	push   %r13
  401a16:	41 54                	push   %r12
  401a18:	53                   	push   %rbx
  401a19:	49 89 fd             	mov    %rdi,%r13
  401a1c:	48 83 ec 08          	sub    $0x8,%rsp
  401a20:	e8 2b f7 ff ff       	callq  401150 <strlen@plt>
  401a25:	48 63 f8             	movslq %eax,%rdi
  401a28:	49 89 c4             	mov    %rax,%r12
  401a2b:	48 83 ef 80          	sub    $0xffffffffffffff80,%rdi
  401a2f:	e8 4c f8 ff ff       	callq  401280 <malloc@plt>
  401a34:	41 8d 94 24 80 00 00 	lea    0x80(%r12),%edx
  401a3b:	00 
  401a3c:	48 89 c3             	mov    %rax,%rbx
  401a3f:	31 f6                	xor    %esi,%esi
  401a41:	48 89 c7             	mov    %rax,%rdi
  401a44:	48 63 d2             	movslq %edx,%rdx
  401a47:	e8 34 f7 ff ff       	callq  401180 <memset@plt>
  401a4c:	4d 89 e9             	mov    %r13,%r9
  401a4f:	45 89 e0             	mov    %r12d,%r8d
  401a52:	48 89 df             	mov    %rbx,%rdi
  401a55:	b9 00 2e 40 00       	mov    $0x402e00,%ecx
  401a5a:	48 c7 c2 ff ff ff ff 	mov    $0xffffffffffffffff,%rdx
  401a61:	be 01 00 00 00       	mov    $0x1,%esi
  401a66:	31 c0                	xor    %eax,%eax
  401a68:	e8 23 f7 ff ff       	callq  401190 <__sprintf_chk@plt>
  401a6d:	48 83 c4 08          	add    $0x8,%rsp
  401a71:	48 89 d8             	mov    %rbx,%rax
  401a74:	5b                   	pop    %rbx
  401a75:	41 5c                	pop    %r12
  401a77:	41 5d                	pop    %r13
  401a79:	5d                   	pop    %rbp
  401a7a:	c3                   	retq   
  401a7b:	0f 1f 44 00 00       	nopl   0x0(%rax,%rax,1)

0000000000401a80 <_Z15on_header_valueP11http_parserPKcm>:
  401a80:	55                   	push   %rbp
  401a81:	b9 40 00 00 00       	mov    $0x40,%ecx
  401a86:	48 89 e5             	mov    %rsp,%rbp
  401a89:	41 54                	push   %r12
  401a8b:	53                   	push   %rbx
  401a8c:	48 89 fb             	mov    %rdi,%rbx
  401a8f:	48 8d bd e0 fd ff ff 	lea    -0x220(%rbp),%rdi
  401a96:	48 81 ec d0 02 00 00 	sub    $0x2d0,%rsp
  401a9d:	64 48 8b 04 25 28 00 	mov    %fs:0x28,%rax
  401aa4:	00 00 
  401aa6:	48 89 45 e8          	mov    %rax,-0x18(%rbp)
  401aaa:	31 c0                	xor    %eax,%eax
  401aac:	48 81 fa 00 02 00 00 	cmp    $0x200,%rdx
  401ab3:	f3 48 ab             	rep stos %rax,%es:(%rdi)
  401ab6:	b8 00 02 00 00       	mov    $0x200,%eax
  401abb:	48 8d bd e0 fd ff ff 	lea    -0x220(%rbp),%rdi
  401ac2:	b9 00 02 00 00       	mov    $0x200,%ecx
  401ac7:	48 0f 47 d0          	cmova  %rax,%rdx
  401acb:	e8 30 f8 ff ff       	callq  401300 <__memcpy_chk@plt>
  401ad0:	48 8d 85 40 fd ff ff 	lea    -0x2c0(%rbp),%rax
  401ad7:	48 8b 5b 18          	mov    0x18(%rbx),%rbx
  401adb:	48 8d 95 e0 fd ff ff 	lea    -0x220(%rbp),%rdx
  401ae2:	48 83 c0 10          	add    $0x10,%rax
  401ae6:	48 89 85 40 fd ff ff 	mov    %rax,-0x2c0(%rbp)
  401aed:	8b 0a                	mov    (%rdx),%ecx
  401aef:	48 83 c2 04          	add    $0x4,%rdx
  401af3:	8d 81 ff fe fe fe    	lea    -0x1010101(%rcx),%eax
  401af9:	f7 d1                	not    %ecx
  401afb:	21 c8                	and    %ecx,%eax
  401afd:	25 80 80 80 80       	and    $0x80808080,%eax
  401b02:	74 e9                	je     401aed <_Z15on_header_valueP11http_parserPKcm+0x6d>
  401b04:	89 c1                	mov    %eax,%ecx
  401b06:	48 8d b5 e0 fd ff ff 	lea    -0x220(%rbp),%rsi
  401b0d:	48 8d bd 40 fd ff ff 	lea    -0x2c0(%rbp),%rdi
  401b14:	c1 e9 10             	shr    $0x10,%ecx
  401b17:	a9 80 80 00 00       	test   $0x8080,%eax
  401b1c:	49 89 dc             	mov    %rbx,%r12
  401b1f:	0f 44 c1             	cmove  %ecx,%eax
  401b22:	48 8d 4a 02          	lea    0x2(%rdx),%rcx
  401b26:	48 0f 44 d1          	cmove  %rcx,%rdx
  401b2a:	89 c1                	mov    %eax,%ecx
  401b2c:	00 c1                	add    %al,%cl
  401b2e:	48 83 da 03          	sbb    $0x3,%rdx
  401b32:	e8 69 fb ff ff       	callq  4016a0 <_ZNSt7__cxx1112basic_stringIcSt11char_traitsIcESaIcEE12_M_constructIPKcEEvT_S8_St20forward_iterator_tag.isra.31>
  401b37:	48 8d 85 20 fd ff ff 	lea    -0x2e0(%rbp),%rax
  401b3e:	48 8d 53 47          	lea    0x47(%rbx),%rdx
  401b42:	48 83 c0 10          	add    $0x10,%rax
  401b46:	49 83 c4 48          	add    $0x48,%r12
  401b4a:	48 89 85 20 fd ff ff 	mov    %rax,-0x2e0(%rbp)
  401b51:	74 0c                	je     401b5f <_Z15on_header_valueP11http_parserPKcm+0xdf>
  401b53:	4c 89 e7             	mov    %r12,%rdi
  401b56:	e8 f5 f5 ff ff       	callq  401150 <strlen@plt>
  401b5b:	49 8d 14 04          	lea    (%r12,%rax,1),%rdx
  401b5f:	48 8d bd 20 fd ff ff 	lea    -0x2e0(%rbp),%rdi
  401b66:	4c 89 e6             	mov    %r12,%rsi
  401b69:	e8 32 fb ff ff       	callq  4016a0 <_ZNSt7__cxx1112basic_stringIcSt11char_traitsIcESaIcEE12_M_constructIPKcEEvT_S8_St20forward_iterator_tag.isra.31>
  401b6e:	48 8b b5 20 fd ff ff 	mov    -0x2e0(%rbp),%rsi
  401b75:	48 8d 85 60 fd ff ff 	lea    -0x2a0(%rbp),%rax
  401b7c:	48 8d bd 60 fd ff ff 	lea    -0x2a0(%rbp),%rdi
  401b83:	48 83 c0 10          	add    $0x10,%rax
  401b87:	48 89 f2             	mov    %rsi,%rdx
  401b8a:	48 03 95 28 fd ff ff 	add    -0x2d8(%rbp),%rdx
  401b91:	48 89 85 60 fd ff ff 	mov    %rax,-0x2a0(%rbp)
  401b98:	e8 03 fb ff ff       	callq  4016a0 <_ZNSt7__cxx1112basic_stringIcSt11char_traitsIcESaIcEE12_M_constructIPKcEEvT_S8_St20forward_iterator_tag.isra.31>
  401b9d:	48 8d 85 60 fd ff ff 	lea    -0x2a0(%rbp),%rax
  401ba4:	48 8b b5 40 fd ff ff 	mov    -0x2c0(%rbp),%rsi
  401bab:	48 83 c0 30          	add    $0x30,%rax
  401baf:	48 89 85 80 fd ff ff 	mov    %rax,-0x280(%rbp)
  401bb6:	48 89 f2             	mov    %rsi,%rdx
  401bb9:	48 8d 85 60 fd ff ff 	lea    -0x2a0(%rbp),%rax
  401bc0:	48 03 95 48 fd ff ff 	add    -0x2b8(%rbp),%rdx
  401bc7:	48 8d 78 20          	lea    0x20(%rax),%rdi
  401bcb:	e8 d0 fa ff ff       	callq  4016a0 <_ZNSt7__cxx1112basic_stringIcSt11char_traitsIcESaIcEE12_M_constructIPKcEEvT_S8_St20forward_iterator_tag.isra.31>
  401bd0:	48 8b b5 60 fd ff ff 	mov    -0x2a0(%rbp),%rsi
  401bd7:	48 8d 85 a0 fd ff ff 	lea    -0x260(%rbp),%rax
  401bde:	48 8d bd a0 fd ff ff 	lea    -0x260(%rbp),%rdi
  401be5:	48 83 c0 10          	add    $0x10,%rax
  401be9:	48 89 f2             	mov    %rsi,%rdx
  401bec:	48 03 95 68 fd ff ff 	add    -0x298(%rbp),%rdx
  401bf3:	48 89 85 a0 fd ff ff 	mov    %rax,-0x260(%rbp)
  401bfa:	e8 a1 fa ff ff       	callq  4016a0 <_ZNSt7__cxx1112basic_stringIcSt11char_traitsIcESaIcEE12_M_constructIPKcEEvT_S8_St20forward_iterator_tag.isra.31>
  401bff:	48 8d 85 a0 fd ff ff 	lea    -0x260(%rbp),%rax
  401c06:	48 8b b5 80 fd ff ff 	mov    -0x280(%rbp),%rsi
  401c0d:	48 83 c0 30          	add    $0x30,%rax
  401c11:	48 89 85 c0 fd ff ff 	mov    %rax,-0x240(%rbp)
  401c18:	48 89 f2             	mov    %rsi,%rdx
  401c1b:	48 8d 85 a0 fd ff ff 	lea    -0x260(%rbp),%rax
  401c22:	48 03 95 88 fd ff ff 	add    -0x278(%rbp),%rdx
  401c29:	48 8d 78 20          	lea    0x20(%rax),%rdi
  401c2d:	e8 6e fa ff ff       	callq  4016a0 <_ZNSt7__cxx1112basic_stringIcSt11char_traitsIcESaIcEE12_M_constructIPKcEEvT_S8_St20forward_iterator_tag.isra.31>
  401c32:	48 8d bb 88 00 00 00 	lea    0x88(%rbx),%rdi
  401c39:	48 8d b5 a0 fd ff ff 	lea    -0x260(%rbp),%rsi
  401c40:	e8 5b 05 00 00       	callq  4021a0 <_ZNSt8_Rb_treeINSt7__cxx1112basic_stringIcSt11char_traitsIcESaIcEEESt4pairIKS5_S5_ESt10_Select1stIS8_ESt4lessIS5_ESaIS8_EE16_M_insert_uniqueERKS8_>
  401c45:	48 8b bd c0 fd ff ff 	mov    -0x240(%rbp),%rdi
  401c4c:	48 8d 85 a0 fd ff ff 	lea    -0x260(%rbp),%rax
  401c53:	48 83 c0 30          	add    $0x30,%rax
  401c57:	48 39 c7             	cmp    %rax,%rdi
  401c5a:	74 05                	je     401c61 <_Z15on_header_valueP11http_parserPKcm+0x1e1>
  401c5c:	e8 af f5 ff ff       	callq  401210 <_ZdlPv@plt>
  401c61:	48 8b bd a0 fd ff ff 	mov    -0x260(%rbp),%rdi
  401c68:	48 8d 85 a0 fd ff ff 	lea    -0x260(%rbp),%rax
  401c6f:	48 83 c0 10          	add    $0x10,%rax
  401c73:	48 39 c7             	cmp    %rax,%rdi
  401c76:	74 05                	je     401c7d <_Z15on_header_valueP11http_parserPKcm+0x1fd>
  401c78:	e8 93 f5 ff ff       	callq  401210 <_ZdlPv@plt>
  401c7d:	48 8b bd 80 fd ff ff 	mov    -0x280(%rbp),%rdi
  401c84:	48 8d 85 60 fd ff ff 	lea    -0x2a0(%rbp),%rax
  401c8b:	48 83 c0 30          	add    $0x30,%rax
  401c8f:	48 39 c7             	cmp    %rax,%rdi
  401c92:	74 05                	je     401c99 <_Z15on_header_valueP11http_parserPKcm+0x219>
  401c94:	e8 77 f5 ff ff       	callq  401210 <_ZdlPv@plt>
  401c99:	48 8b bd 60 fd ff ff 	mov    -0x2a0(%rbp),%rdi
  401ca0:	48 8d 85 60 fd ff ff 	lea    -0x2a0(%rbp),%rax
  401ca7:	48 83 c0 10          	add    $0x10,%rax
  401cab:	48 39 c7             	cmp    %rax,%rdi
  401cae:	74 05                	je     401cb5 <_Z15on_header_valueP11http_parserPKcm+0x235>
  401cb0:	e8 5b f5 ff ff       	callq  401210 <_ZdlPv@plt>
  401cb5:	48 8b bd 20 fd ff ff 	mov    -0x2e0(%rbp),%rdi
  401cbc:	48 8d 85 20 fd ff ff 	lea    -0x2e0(%rbp),%rax
  401cc3:	48 83 c0 10          	add    $0x10,%rax
  401cc7:	48 39 c7             	cmp    %rax,%rdi
  401cca:	74 05                	je     401cd1 <_Z15on_header_valueP11http_parserPKcm+0x251>
  401ccc:	e8 3f f5 ff ff       	callq  401210 <_ZdlPv@plt>
  401cd1:	48 8b bd 40 fd ff ff 	mov    -0x2c0(%rbp),%rdi
  401cd8:	48 8d 85 40 fd ff ff 	lea    -0x2c0(%rbp),%rax
  401cdf:	48 83 c0 10          	add    $0x10,%rax
  401ce3:	48 39 c7             	cmp    %rax,%rdi
  401ce6:	74 05                	je     401ced <_Z15on_header_valueP11http_parserPKcm+0x26d>
  401ce8:	e8 23 f5 ff ff       	callq  401210 <_ZdlPv@plt>
  401ced:	31 c0                	xor    %eax,%eax
  401cef:	48 8b 5d e8          	mov    -0x18(%rbp),%rbx
  401cf3:	64 48 33 1c 25 28 00 	xor    %fs:0x28,%rbx
  401cfa:	00 00 
  401cfc:	75 0c                	jne    401d0a <_Z15on_header_valueP11http_parserPKcm+0x28a>
  401cfe:	48 81 c4 d0 02 00 00 	add    $0x2d0,%rsp
  401d05:	5b                   	pop    %rbx
  401d06:	41 5c                	pop    %r12
  401d08:	5d                   	pop    %rbp
  401d09:	c3                   	retq   
  401d0a:	e8 41 f5 ff ff       	callq  401250 <__stack_chk_fail@plt>
  401d0f:	48 89 c3             	mov    %rax,%rbx
  401d12:	48 8b bd c0 fd ff ff 	mov    -0x240(%rbp),%rdi
  401d19:	48 8d 85 a0 fd ff ff 	lea    -0x260(%rbp),%rax
  401d20:	48 83 c0 30          	add    $0x30,%rax
  401d24:	48 39 c7             	cmp    %rax,%rdi
  401d27:	74 05                	je     401d2e <_Z15on_header_valueP11http_parserPKcm+0x2ae>
  401d29:	e8 e2 f4 ff ff       	callq  401210 <_ZdlPv@plt>
  401d2e:	48 8b bd a0 fd ff ff 	mov    -0x260(%rbp),%rdi
  401d35:	48 8d 85 a0 fd ff ff 	lea    -0x260(%rbp),%rax
  401d3c:	48 83 c0 10          	add    $0x10,%rax
  401d40:	48 39 c7             	cmp    %rax,%rdi
  401d43:	74 05                	je     401d4a <_Z15on_header_valueP11http_parserPKcm+0x2ca>
  401d45:	e8 c6 f4 ff ff       	callq  401210 <_ZdlPv@plt>
  401d4a:	48 8b bd 80 fd ff ff 	mov    -0x280(%rbp),%rdi
  401d51:	48 8d 85 60 fd ff ff 	lea    -0x2a0(%rbp),%rax
  401d58:	48 83 c0 30          	add    $0x30,%rax
  401d5c:	48 39 c7             	cmp    %rax,%rdi
  401d5f:	74 05                	je     401d66 <_Z15on_header_valueP11http_parserPKcm+0x2e6>
  401d61:	e8 aa f4 ff ff       	callq  401210 <_ZdlPv@plt>
  401d66:	48 8d 85 60 fd ff ff 	lea    -0x2a0(%rbp),%rax
  401d6d:	48 8b bd 60 fd ff ff 	mov    -0x2a0(%rbp),%rdi
  401d74:	48 8d 50 10          	lea    0x10(%rax),%rdx
  401d78:	48 39 d7             	cmp    %rdx,%rdi
  401d7b:	74 05                	je     401d82 <_Z15on_header_valueP11http_parserPKcm+0x302>
  401d7d:	e8 8e f4 ff ff       	callq  401210 <_ZdlPv@plt>
  401d82:	48 8d 85 20 fd ff ff 	lea    -0x2e0(%rbp),%rax
  401d89:	48 8b bd 20 fd ff ff 	mov    -0x2e0(%rbp),%rdi
  401d90:	48 8d 50 10          	lea    0x10(%rax),%rdx
  401d94:	48 39 d7             	cmp    %rdx,%rdi
  401d97:	74 05                	je     401d9e <_Z15on_header_valueP11http_parserPKcm+0x31e>
  401d99:	e8 72 f4 ff ff       	callq  401210 <_ZdlPv@plt>
  401d9e:	48 8d 85 40 fd ff ff 	lea    -0x2c0(%rbp),%rax
  401da5:	48 8b bd 40 fd ff ff 	mov    -0x2c0(%rbp),%rdi
  401dac:	48 8d 50 10          	lea    0x10(%rax),%rdx
  401db0:	48 39 d7             	cmp    %rdx,%rdi
  401db3:	74 05                	je     401dba <_Z15on_header_valueP11http_parserPKcm+0x33a>
  401db5:	e8 56 f4 ff ff       	callq  401210 <_ZdlPv@plt>
  401dba:	48 89 df             	mov    %rbx,%rdi
  401dbd:	e8 5e f5 ff ff       	callq  401320 <_Unwind_Resume@plt>
  401dc2:	48 89 c3             	mov    %rax,%rbx
  401dc5:	e9 64 ff ff ff       	jmpq   401d2e <_Z15on_header_valueP11http_parserPKcm+0x2ae>
  401dca:	48 89 c3             	mov    %rax,%rbx
  401dcd:	e9 78 ff ff ff       	jmpq   401d4a <_Z15on_header_valueP11http_parserPKcm+0x2ca>
  401dd2:	48 89 c3             	mov    %rax,%rbx
  401dd5:	48 8b bd 60 fd ff ff 	mov    -0x2a0(%rbp),%rdi
  401ddc:	48 8d 85 60 fd ff ff 	lea    -0x2a0(%rbp),%rax
  401de3:	48 83 c0 10          	add    $0x10,%rax
  401de7:	48 39 c7             	cmp    %rax,%rdi
  401dea:	75 91                	jne    401d7d <_Z15on_header_valueP11http_parserPKcm+0x2fd>
  401dec:	eb 94                	jmp    401d82 <_Z15on_header_valueP11http_parserPKcm+0x302>
  401dee:	48 89 c3             	mov    %rax,%rbx
  401df1:	eb 8f                	jmp    401d82 <_Z15on_header_valueP11http_parserPKcm+0x302>
  401df3:	48 89 c3             	mov    %rax,%rbx
  401df6:	eb a6                	jmp    401d9e <_Z15on_header_valueP11http_parserPKcm+0x31e>
  401df8:	0f 1f 84 00 00 00 00 	nopl   0x0(%rax,%rax,1)
  401dff:	00 

0000000000401e00 <_Z19on_message_completeP11http_parser>:
  401e00:	55                   	push   %rbp
  401e01:	48 89 e5             	mov    %rsp,%rbp
  401e04:	41 57                	push   %r15
  401e06:	41 56                	push   %r14
  401e08:	41 55                	push   %r13
  401e0a:	41 54                	push   %r12
  401e0c:	53                   	push   %rbx
  401e0d:	48 89 fb             	mov    %rdi,%rbx
  401e10:	48 81 ec 88 20 00 00 	sub    $0x2088,%rsp
  401e17:	48 89 bd 58 df ff ff 	mov    %rdi,-0x20a8(%rbp)
  401e1e:	bf 54 2d 40 00       	mov    $0x402d54,%edi
  401e23:	64 48 8b 04 25 28 00 	mov    %fs:0x28,%rax
  401e2a:	00 00 
  401e2c:	48 89 45 c8          	mov    %rax,-0x38(%rbp)
  401e30:	31 c0                	xor    %eax,%eax
  401e32:	e8 89 f4 ff ff       	callq  4012c0 <puts@plt>
  401e37:	48 8b 5b 18          	mov    0x18(%rbx),%rbx
  401e3b:	48 8d 85 70 df ff ff 	lea    -0x2090(%rbp),%rax
  401e42:	c7 85 78 df ff ff 00 	movl   $0x0,-0x2088(%rbp)
  401e49:	00 00 00 
  401e4c:	48 c7 85 80 df ff ff 	movq   $0x0,-0x2080(%rbp)
  401e53:	00 00 00 00 
  401e57:	48 c7 85 98 df ff ff 	movq   $0x0,-0x2068(%rbp)
  401e5e:	00 00 00 00 
  401e62:	48 8d 50 08          	lea    0x8(%rax),%rdx
  401e66:	48 8b b3 98 00 00 00 	mov    0x98(%rbx),%rsi
  401e6d:	48 89 95 88 df ff ff 	mov    %rdx,-0x2078(%rbp)
  401e74:	48 89 95 90 df ff ff 	mov    %rdx,-0x2070(%rbp)
  401e7b:	48 85 f6             	test   %rsi,%rsi
  401e7e:	74 6c                	je     401eec <_Z19on_message_completeP11http_parser+0xec>
  401e80:	48 8d 8d 60 df ff ff 	lea    -0x20a0(%rbp),%rcx
  401e87:	48 89 c7             	mov    %rax,%rdi
  401e8a:	48 89 85 60 df ff ff 	mov    %rax,-0x20a0(%rbp)
  401e91:	e8 3a 06 00 00       	callq  4024d0 <_ZNSt8_Rb_treeINSt7__cxx1112basic_stringIcSt11char_traitsIcESaIcEEESt4pairIKS5_S5_ESt10_Select1stIS8_ESt4lessIS5_ESaIS8_EE7_M_copyINSE_11_Alloc_nodeEEEPSt13_Rb_tree_nodeIS8_EPKSI_SJ_RT_>
  401e96:	48 89 85 80 df ff ff 	mov    %rax,-0x2080(%rbp)
  401e9d:	48 89 c1             	mov    %rax,%rcx
  401ea0:	eb 09                	jmp    401eab <_Z19on_message_completeP11http_parser+0xab>
  401ea2:	66 0f 1f 44 00 00    	nopw   0x0(%rax,%rax,1)
  401ea8:	48 89 d1             	mov    %rdx,%rcx
  401eab:	48 8b 51 10          	mov    0x10(%rcx),%rdx
  401eaf:	48 85 d2             	test   %rdx,%rdx
  401eb2:	75 f4                	jne    401ea8 <_Z19on_message_completeP11http_parser+0xa8>
  401eb4:	48 89 8d 88 df ff ff 	mov    %rcx,-0x2078(%rbp)
  401ebb:	eb 06                	jmp    401ec3 <_Z19on_message_completeP11http_parser+0xc3>
  401ebd:	0f 1f 00             	nopl   (%rax)
  401ec0:	48 89 d0             	mov    %rdx,%rax
  401ec3:	48 8b 50 18          	mov    0x18(%rax),%rdx
  401ec7:	48 85 d2             	test   %rdx,%rdx
  401eca:	75 f4                	jne    401ec0 <_Z19on_message_completeP11http_parser+0xc0>
  401ecc:	48 89 85 90 df ff ff 	mov    %rax,-0x2070(%rbp)
  401ed3:	48 8b 83 b0 00 00 00 	mov    0xb0(%rbx),%rax
  401eda:	48 89 85 98 df ff ff 	mov    %rax,-0x2068(%rbp)
  401ee1:	48 8b 85 58 df ff ff 	mov    -0x20a8(%rbp),%rax
  401ee8:	48 8b 58 18          	mov    0x18(%rax),%rbx
  401eec:	bf c0 00 00 00       	mov    $0xc0,%edi
  401ef1:	e8 8a f3 ff ff       	callq  401280 <malloc@plt>
  401ef6:	48 8d 95 c0 df ff ff 	lea    -0x2040(%rbp),%rdx
  401efd:	49 89 c5             	mov    %rax,%r13
  401f00:	b9 00 04 00 00       	mov    $0x400,%ecx
  401f05:	48 b8 39 39 39 39 39 	movabs $0x3939393939393939,%rax
  401f0c:	39 39 39 
  401f0f:	48 89 d7             	mov    %rdx,%rdi
  401f12:	f3 48 ab             	rep stos %rax,%es:(%rdi)
  401f15:	48 89 d7             	mov    %rdx,%rdi
  401f18:	e8 f3 fa ff ff       	callq  401a10 <_Z11response_okPKc>
  401f1d:	49 89 c4             	mov    %rax,%r12
  401f20:	48 89 c7             	mov    %rax,%rdi
  401f23:	e8 28 f2 ff ff       	callq  401150 <strlen@plt>
  401f28:	4c 89 e7             	mov    %r12,%rdi
  401f2b:	89 c6                	mov    %eax,%esi
  401f2d:	e8 1e f4 ff ff       	callq  401350 <uv_buf_init@plt>
  401f32:	48 89 85 60 df ff ff 	mov    %rax,-0x20a0(%rbp)
  401f39:	48 8b 03             	mov    (%rbx),%rax
  401f3c:	41 b8 20 15 40 00    	mov    $0x401520,%r8d
  401f42:	48 89 95 68 df ff ff 	mov    %rdx,-0x2098(%rbp)
  401f49:	48 8d 95 60 df ff ff 	lea    -0x20a0(%rbp),%rdx
  401f50:	b9 01 00 00 00       	mov    $0x1,%ecx
  401f55:	4c 89 ef             	mov    %r13,%rdi
  401f58:	48 89 c6             	mov    %rax,%rsi
  401f5b:	48 89 85 50 df ff ff 	mov    %rax,-0x20b0(%rbp)
  401f62:	e8 d9 f1 ff ff       	callq  401140 <uv_write@plt>
  401f67:	4c 89 e7             	mov    %r12,%rdi
  401f6a:	e8 f1 f2 ff ff       	callq  401260 <free@plt>
  401f6f:	48 8d 85 a0 df ff ff 	lea    -0x2060(%rbp),%rax
  401f76:	48 8d bd a0 df ff ff 	lea    -0x2060(%rbp),%rdi
  401f7d:	ba 6d 2d 40 00       	mov    $0x402d6d,%edx
  401f82:	be 63 2d 40 00       	mov    $0x402d63,%esi
  401f87:	48 83 c0 10          	add    $0x10,%rax
  401f8b:	48 89 85 a0 df ff ff 	mov    %rax,-0x2060(%rbp)
  401f92:	e8 09 f7 ff ff       	callq  4016a0 <_ZNSt7__cxx1112basic_stringIcSt11char_traitsIcESaIcEE12_M_constructIPKcEEvT_S8_St20forward_iterator_tag.isra.31>
  401f97:	48 8b 9d 80 df ff ff 	mov    -0x2080(%rbp),%rbx
  401f9e:	48 85 db             	test   %rbx,%rbx
  401fa1:	0f 84 c1 01 00 00    	je     402168 <_Z19on_message_completeP11http_parser+0x368>
  401fa7:	48 8d 85 70 df ff ff 	lea    -0x2090(%rbp),%rax
  401fae:	4c 8b bd a8 df ff ff 	mov    -0x2058(%rbp),%r15
  401fb5:	4c 8b ad a0 df ff ff 	mov    -0x2060(%rbp),%r13
  401fbc:	4c 8d 60 08          	lea    0x8(%rax),%r12
  401fc0:	eb 26                	jmp    401fe8 <_Z19on_message_completeP11http_parser+0x1e8>
  401fc2:	66 0f 1f 44 00 00    	nopw   0x0(%rax,%rax,1)
  401fc8:	48 8b 7b 20          	mov    0x20(%rbx),%rdi
  401fcc:	4c 89 ee             	mov    %r13,%rsi
  401fcf:	e8 8c f1 ff ff       	callq  401160 <memcmp@plt>
  401fd4:	85 c0                	test   %eax,%eax
  401fd6:	74 23                	je     401ffb <_Z19on_message_completeP11http_parser+0x1fb>
  401fd8:	85 c0                	test   %eax,%eax
  401fda:	78 44                	js     402020 <_Z19on_message_completeP11http_parser+0x220>
  401fdc:	49 89 dc             	mov    %rbx,%r12
  401fdf:	48 8b 5b 10          	mov    0x10(%rbx),%rbx
  401fe3:	48 85 db             	test   %rbx,%rbx
  401fe6:	74 41                	je     402029 <_Z19on_message_completeP11http_parser+0x229>
  401fe8:	4c 8b 73 28          	mov    0x28(%rbx),%r14
  401fec:	4c 89 fa             	mov    %r15,%rdx
  401fef:	4d 39 fe             	cmp    %r15,%r14
  401ff2:	49 0f 46 d6          	cmovbe %r14,%rdx
  401ff6:	48 85 d2             	test   %rdx,%rdx
  401ff9:	75 cd                	jne    401fc8 <_Z19on_message_completeP11http_parser+0x1c8>
  401ffb:	4c 89 f1             	mov    %r14,%rcx
  401ffe:	4c 29 f9             	sub    %r15,%rcx
  402001:	48 81 f9 ff ff ff 7f 	cmp    $0x7fffffff,%rcx
  402008:	7f d2                	jg     401fdc <_Z19on_message_completeP11http_parser+0x1dc>
  40200a:	48 81 f9 00 00 00 80 	cmp    $0xffffffff80000000,%rcx
  402011:	7c 0d                	jl     402020 <_Z19on_message_completeP11http_parser+0x220>
  402013:	89 c8                	mov    %ecx,%eax
  402015:	85 c0                	test   %eax,%eax
  402017:	79 c3                	jns    401fdc <_Z19on_message_completeP11http_parser+0x1dc>
  402019:	0f 1f 80 00 00 00 00 	nopl   0x0(%rax)
  402020:	48 8b 5b 18          	mov    0x18(%rbx),%rbx
  402024:	48 85 db             	test   %rbx,%rbx
  402027:	75 bf                	jne    401fe8 <_Z19on_message_completeP11http_parser+0x1e8>
  402029:	48 8d 85 70 df ff ff 	lea    -0x2090(%rbp),%rax
  402030:	48 83 c0 08          	add    $0x8,%rax
  402034:	49 39 c4             	cmp    %rax,%r12
  402037:	0f 84 e7 00 00 00    	je     402124 <_Z19on_message_completeP11http_parser+0x324>
  40203d:	49 8b 5c 24 28       	mov    0x28(%r12),%rbx
  402042:	49 39 df             	cmp    %rbx,%r15
  402045:	48 89 da             	mov    %rbx,%rdx
  402048:	49 0f 46 d7          	cmovbe %r15,%rdx
  40204c:	48 85 d2             	test   %rdx,%rdx
  40204f:	0f 84 b3 00 00 00    	je     402108 <_Z19on_message_completeP11http_parser+0x308>
  402055:	49 8b 74 24 20       	mov    0x20(%r12),%rsi
  40205a:	4c 89 ef             	mov    %r13,%rdi
  40205d:	e8 fe f0 ff ff       	callq  401160 <memcmp@plt>
  402062:	85 c0                	test   %eax,%eax
  402064:	0f 84 9e 00 00 00    	je     402108 <_Z19on_message_completeP11http_parser+0x308>
  40206a:	85 c0                	test   %eax,%eax
  40206c:	0f 88 b2 00 00 00    	js     402124 <_Z19on_message_completeP11http_parser+0x324>
  402072:	48 8d 85 a0 df ff ff 	lea    -0x2060(%rbp),%rax
  402079:	48 83 c0 10          	add    $0x10,%rax
  40207d:	49 39 c5             	cmp    %rax,%r13
  402080:	74 08                	je     40208a <_Z19on_message_completeP11http_parser+0x28a>
  402082:	4c 89 ef             	mov    %r13,%rdi
  402085:	e8 86 f1 ff ff       	callq  401210 <_ZdlPv@plt>
  40208a:	49 8b 74 24 40       	mov    0x40(%r12),%rsi
  40208f:	bf 6e 2d 40 00       	mov    $0x402d6e,%edi
  402094:	b9 0b 00 00 00       	mov    $0xb,%ecx
  402099:	f3 a6                	repz cmpsb %es:(%rdi),%ds:(%rsi)
  40209b:	0f 84 a7 00 00 00    	je     402148 <_Z19on_message_completeP11http_parser+0x348>
  4020a1:	bf 50 2e 40 00       	mov    $0x402e50,%edi
  4020a6:	e8 15 f2 ff ff       	callq  4012c0 <puts@plt>
  4020ab:	48 8b bd 50 df ff ff 	mov    -0x20b0(%rbp),%rdi
  4020b2:	31 f6                	xor    %esi,%esi
  4020b4:	e8 67 f0 ff ff       	callq  401120 <uv_close@plt>
  4020b9:	48 8b 85 58 df ff ff 	mov    -0x20a8(%rbp),%rax
  4020c0:	48 8b 78 18          	mov    0x18(%rax),%rdi
  4020c4:	e8 97 f1 ff ff       	callq  401260 <free@plt>
  4020c9:	48 8b b5 80 df ff ff 	mov    -0x2080(%rbp),%rsi
  4020d0:	48 8d bd 70 df ff ff 	lea    -0x2090(%rbp),%rdi
  4020d7:	e8 84 03 00 00       	callq  402460 <_ZNSt8_Rb_treeINSt7__cxx1112basic_stringIcSt11char_traitsIcESaIcEEESt4pairIKS5_S5_ESt10_Select1stIS8_ESt4lessIS5_ESaIS8_EE8_M_eraseEPSt13_Rb_tree_nodeIS8_E>
  4020dc:	31 c0                	xor    %eax,%eax
  4020de:	48 8b 75 c8          	mov    -0x38(%rbp),%rsi
  4020e2:	64 48 33 34 25 28 00 	xor    %fs:0x28,%rsi
  4020e9:	00 00 
  4020eb:	0f 85 9e 00 00 00    	jne    40218f <_Z19on_message_completeP11http_parser+0x38f>
  4020f1:	48 81 c4 88 20 00 00 	add    $0x2088,%rsp
  4020f8:	5b                   	pop    %rbx
  4020f9:	41 5c                	pop    %r12
  4020fb:	41 5d                	pop    %r13
  4020fd:	41 5e                	pop    %r14
  4020ff:	41 5f                	pop    %r15
  402101:	5d                   	pop    %rbp
  402102:	c3                   	retq   
  402103:	0f 1f 44 00 00       	nopl   0x0(%rax,%rax,1)
  402108:	4d 89 f8             	mov    %r15,%r8
  40210b:	49 29 d8             	sub    %rbx,%r8
  40210e:	49 81 f8 ff ff ff 7f 	cmp    $0x7fffffff,%r8
  402115:	0f 8f 57 ff ff ff    	jg     402072 <_Z19on_message_completeP11http_parser+0x272>
  40211b:	49 81 f8 00 00 00 80 	cmp    $0xffffffff80000000,%r8
  402122:	7d 3c                	jge    402160 <_Z19on_message_completeP11http_parser+0x360>
  402124:	48 8d 85 a0 df ff ff 	lea    -0x2060(%rbp),%rax
  40212b:	48 83 c0 10          	add    $0x10,%rax
  40212f:	49 39 c5             	cmp    %rax,%r13
  402132:	0f 84 69 ff ff ff    	je     4020a1 <_Z19on_message_completeP11http_parser+0x2a1>
  402138:	4c 89 ef             	mov    %r13,%rdi
  40213b:	e8 d0 f0 ff ff       	callq  401210 <_ZdlPv@plt>
  402140:	e9 5c ff ff ff       	jmpq   4020a1 <_Z19on_message_completeP11http_parser+0x2a1>
  402145:	0f 1f 00             	nopl   (%rax)
  402148:	bf 80 2e 40 00       	mov    $0x402e80,%edi
  40214d:	e8 6e f1 ff ff       	callq  4012c0 <puts@plt>
  402152:	e9 62 ff ff ff       	jmpq   4020b9 <_Z19on_message_completeP11http_parser+0x2b9>
  402157:	66 0f 1f 84 00 00 00 	nopw   0x0(%rax,%rax,1)
  40215e:	00 00 
  402160:	44 89 c0             	mov    %r8d,%eax
  402163:	e9 02 ff ff ff       	jmpq   40206a <_Z19on_message_completeP11http_parser+0x26a>
  402168:	4c 8b ad a0 df ff ff 	mov    -0x2060(%rbp),%r13
  40216f:	eb b3                	jmp    402124 <_Z19on_message_completeP11http_parser+0x324>
  402171:	48 8b b5 80 df ff ff 	mov    -0x2080(%rbp),%rsi
  402178:	48 8d bd 70 df ff ff 	lea    -0x2090(%rbp),%rdi
  40217f:	48 89 c3             	mov    %rax,%rbx
  402182:	e8 d9 02 00 00       	callq  402460 <_ZNSt8_Rb_treeINSt7__cxx1112basic_stringIcSt11char_traitsIcESaIcEEESt4pairIKS5_S5_ESt10_Select1stIS8_ESt4lessIS5_ESaIS8_EE8_M_eraseEPSt13_Rb_tree_nodeIS8_E>
  402187:	48 89 df             	mov    %rbx,%rdi
  40218a:	e8 91 f1 ff ff       	callq  401320 <_Unwind_Resume@plt>
  40218f:	e8 bc f0 ff ff       	callq  401250 <__stack_chk_fail@plt>
  402194:	66 2e 0f 1f 84 00 00 	nopw   %cs:0x0(%rax,%rax,1)
  40219b:	00 00 00 
  40219e:	66 90                	xchg   %ax,%ax

00000000004021a0 <_ZNSt8_Rb_treeINSt7__cxx1112basic_stringIcSt11char_traitsIcESaIcEEESt4pairIKS5_S5_ESt10_Select1stIS8_ESt4lessIS5_ESaIS8_EE16_M_insert_uniqueERKS8_>:
  4021a0:	55                   	push   %rbp
  4021a1:	48 89 f8             	mov    %rdi,%rax
  4021a4:	48 83 c0 08          	add    $0x8,%rax
  4021a8:	48 89 e5             	mov    %rsp,%rbp
  4021ab:	41 57                	push   %r15
  4021ad:	41 56                	push   %r14
  4021af:	41 55                	push   %r13
  4021b1:	41 54                	push   %r12
  4021b3:	53                   	push   %rbx
  4021b4:	48 83 ec 28          	sub    $0x28,%rsp
  4021b8:	4c 8b 7f 10          	mov    0x10(%rdi),%r15
  4021bc:	48 89 7d c0          	mov    %rdi,-0x40(%rbp)
  4021c0:	48 89 75 b8          	mov    %rsi,-0x48(%rbp)
  4021c4:	48 89 45 b0          	mov    %rax,-0x50(%rbp)
  4021c8:	4d 85 ff             	test   %r15,%r15
  4021cb:	0f 84 c0 00 00 00    	je     402291 <_ZNSt8_Rb_treeINSt7__cxx1112basic_stringIcSt11char_traitsIcESaIcEEESt4pairIKS5_S5_ESt10_Select1stIS8_ESt4lessIS5_ESaIS8_EE16_M_insert_uniqueERKS8_+0xf1>
  4021d1:	48 8b 06             	mov    (%rsi),%rax
  4021d4:	4c 8b 6e 08          	mov    0x8(%rsi),%r13
  4021d8:	48 89 45 c8          	mov    %rax,-0x38(%rbp)
  4021dc:	eb 27                	jmp    402205 <_ZNSt8_Rb_treeINSt7__cxx1112basic_stringIcSt11char_traitsIcESaIcEEESt4pairIKS5_S5_ESt10_Select1stIS8_ESt4lessIS5_ESaIS8_EE16_M_insert_uniqueERKS8_+0x65>
  4021de:	66 90                	xchg   %ax,%ax
  4021e0:	48 8b 7d c8          	mov    -0x38(%rbp),%rdi
  4021e4:	4c 89 f2             	mov    %r14,%rdx
  4021e7:	4c 89 e6             	mov    %r12,%rsi
  4021ea:	e8 71 ef ff ff       	callq  401160 <memcmp@plt>
  4021ef:	85 c0                	test   %eax,%eax
  4021f1:	74 29                	je     40221c <_ZNSt8_Rb_treeINSt7__cxx1112basic_stringIcSt11char_traitsIcESaIcEEESt4pairIKS5_S5_ESt10_Select1stIS8_ESt4lessIS5_ESaIS8_EE16_M_insert_uniqueERKS8_+0x7c>
  4021f3:	85 c0                	test   %eax,%eax
  4021f5:	78 3b                	js     402232 <_ZNSt8_Rb_treeINSt7__cxx1112basic_stringIcSt11char_traitsIcESaIcEEESt4pairIKS5_S5_ESt10_Select1stIS8_ESt4lessIS5_ESaIS8_EE16_M_insert_uniqueERKS8_+0x92>
  4021f7:	49 8b 47 18          	mov    0x18(%r15),%rax
  4021fb:	31 f6                	xor    %esi,%esi
  4021fd:	48 85 c0             	test   %rax,%rax
  402200:	74 3e                	je     402240 <_ZNSt8_Rb_treeINSt7__cxx1112basic_stringIcSt11char_traitsIcESaIcEEESt4pairIKS5_S5_ESt10_Select1stIS8_ESt4lessIS5_ESaIS8_EE16_M_insert_uniqueERKS8_+0xa0>
  402202:	49 89 c7             	mov    %rax,%r15
  402205:	49 8b 5f 28          	mov    0x28(%r15),%rbx
  402209:	4d 89 ee             	mov    %r13,%r14
  40220c:	4d 8b 67 20          	mov    0x20(%r15),%r12
  402210:	4c 39 eb             	cmp    %r13,%rbx
  402213:	4c 0f 46 f3          	cmovbe %rbx,%r14
  402217:	4d 85 f6             	test   %r14,%r14
  40221a:	75 c4                	jne    4021e0 <_ZNSt8_Rb_treeINSt7__cxx1112basic_stringIcSt11char_traitsIcESaIcEEESt4pairIKS5_S5_ESt10_Select1stIS8_ESt4lessIS5_ESaIS8_EE16_M_insert_uniqueERKS8_+0x40>
  40221c:	4c 89 e8             	mov    %r13,%rax
  40221f:	48 29 d8             	sub    %rbx,%rax
  402222:	48 3d ff ff ff 7f    	cmp    $0x7fffffff,%rax
  402228:	7f cd                	jg     4021f7 <_ZNSt8_Rb_treeINSt7__cxx1112basic_stringIcSt11char_traitsIcESaIcEEESt4pairIKS5_S5_ESt10_Select1stIS8_ESt4lessIS5_ESaIS8_EE16_M_insert_uniqueERKS8_+0x57>
  40222a:	48 3d 00 00 00 80    	cmp    $0xffffffff80000000,%rax
  402230:	7d c1                	jge    4021f3 <_ZNSt8_Rb_treeINSt7__cxx1112basic_stringIcSt11char_traitsIcESaIcEEESt4pairIKS5_S5_ESt10_Select1stIS8_ESt4lessIS5_ESaIS8_EE16_M_insert_uniqueERKS8_+0x53>
  402232:	49 8b 47 10          	mov    0x10(%r15),%rax
  402236:	be 01 00 00 00       	mov    $0x1,%esi
  40223b:	48 85 c0             	test   %rax,%rax
  40223e:	75 c2                	jne    402202 <_ZNSt8_Rb_treeINSt7__cxx1112basic_stringIcSt11char_traitsIcESaIcEEESt4pairIKS5_S5_ESt10_Select1stIS8_ESt4lessIS5_ESaIS8_EE16_M_insert_uniqueERKS8_+0x62>
  402240:	40 84 f6             	test   %sil,%sil
  402243:	4c 89 f2             	mov    %r14,%rdx
  402246:	4d 89 fe             	mov    %r15,%r14
  402249:	75 4d                	jne    402298 <_ZNSt8_Rb_treeINSt7__cxx1112basic_stringIcSt11char_traitsIcESaIcEEESt4pairIKS5_S5_ESt10_Select1stIS8_ESt4lessIS5_ESaIS8_EE16_M_insert_uniqueERKS8_+0xf8>
  40224b:	48 85 d2             	test   %rdx,%rdx
  40224e:	74 30                	je     402280 <_ZNSt8_Rb_treeINSt7__cxx1112basic_stringIcSt11char_traitsIcESaIcEEESt4pairIKS5_S5_ESt10_Select1stIS8_ESt4lessIS5_ESaIS8_EE16_M_insert_uniqueERKS8_+0xe0>
  402250:	48 8b 75 c8          	mov    -0x38(%rbp),%rsi
  402254:	4c 89 e7             	mov    %r12,%rdi
  402257:	e8 04 ef ff ff       	callq  401160 <memcmp@plt>
  40225c:	85 c0                	test   %eax,%eax
  40225e:	74 20                	je     402280 <_ZNSt8_Rb_treeINSt7__cxx1112basic_stringIcSt11char_traitsIcESaIcEEESt4pairIKS5_S5_ESt10_Select1stIS8_ESt4lessIS5_ESaIS8_EE16_M_insert_uniqueERKS8_+0xe0>
  402260:	85 c0                	test   %eax,%eax
  402262:	4c 89 f9             	mov    %r15,%rcx
  402265:	0f 88 82 00 00 00    	js     4022ed <_ZNSt8_Rb_treeINSt7__cxx1112basic_stringIcSt11char_traitsIcESaIcEEESt4pairIKS5_S5_ESt10_Select1stIS8_ESt4lessIS5_ESaIS8_EE16_M_insert_uniqueERKS8_+0x14d>
  40226b:	48 83 c4 28          	add    $0x28,%rsp
  40226f:	48 89 c8             	mov    %rcx,%rax
  402272:	31 d2                	xor    %edx,%edx
  402274:	5b                   	pop    %rbx
  402275:	41 5c                	pop    %r12
  402277:	41 5d                	pop    %r13
  402279:	41 5e                	pop    %r14
  40227b:	41 5f                	pop    %r15
  40227d:	5d                   	pop    %rbp
  40227e:	c3                   	retq   
  40227f:	90                   	nop
  402280:	4c 29 eb             	sub    %r13,%rbx
  402283:	48 81 fb ff ff ff 7f 	cmp    $0x7fffffff,%rbx
  40228a:	7e 54                	jle    4022e0 <_ZNSt8_Rb_treeINSt7__cxx1112basic_stringIcSt11char_traitsIcESaIcEEESt4pairIKS5_S5_ESt10_Select1stIS8_ESt4lessIS5_ESaIS8_EE16_M_insert_uniqueERKS8_+0x140>
  40228c:	4c 89 f9             	mov    %r15,%rcx
  40228f:	eb da                	jmp    40226b <_ZNSt8_Rb_treeINSt7__cxx1112basic_stringIcSt11char_traitsIcESaIcEEESt4pairIKS5_S5_ESt10_Select1stIS8_ESt4lessIS5_ESaIS8_EE16_M_insert_uniqueERKS8_+0xcb>
  402291:	4c 8b 7d b0          	mov    -0x50(%rbp),%r15
  402295:	0f 1f 00             	nopl   (%rax)
  402298:	48 8b 45 c0          	mov    -0x40(%rbp),%rax
  40229c:	4c 39 78 18          	cmp    %r15,0x18(%rax)
  4022a0:	0f 84 21 01 00 00    	je     4023c7 <_ZNSt8_Rb_treeINSt7__cxx1112basic_stringIcSt11char_traitsIcESaIcEEESt4pairIKS5_S5_ESt10_Select1stIS8_ESt4lessIS5_ESaIS8_EE16_M_insert_uniqueERKS8_+0x227>
  4022a6:	4c 89 ff             	mov    %r15,%rdi
  4022a9:	4d 89 fe             	mov    %r15,%r14
  4022ac:	e8 7f ef ff ff       	callq  401230 <_ZSt18_Rb_tree_decrementPSt18_Rb_tree_node_base@plt>
  4022b1:	48 8b 4d b8          	mov    -0x48(%rbp),%rcx
  4022b5:	48 8b 58 28          	mov    0x28(%rax),%rbx
  4022b9:	49 89 c7             	mov    %rax,%r15
  4022bc:	4c 8b 60 20          	mov    0x20(%rax),%r12
  4022c0:	4c 8b 69 08          	mov    0x8(%rcx),%r13
  4022c4:	48 8b 09             	mov    (%rcx),%rcx
  4022c7:	48 89 da             	mov    %rbx,%rdx
  4022ca:	49 39 dd             	cmp    %rbx,%r13
  4022cd:	48 89 4d c8          	mov    %rcx,-0x38(%rbp)
  4022d1:	49 0f 46 d5          	cmovbe %r13,%rdx
  4022d5:	e9 71 ff ff ff       	jmpq   40224b <_ZNSt8_Rb_treeINSt7__cxx1112basic_stringIcSt11char_traitsIcESaIcEEESt4pairIKS5_S5_ESt10_Select1stIS8_ESt4lessIS5_ESaIS8_EE16_M_insert_uniqueERKS8_+0xab>
  4022da:	66 0f 1f 44 00 00    	nopw   0x0(%rax,%rax,1)
  4022e0:	48 81 fb 00 00 00 80 	cmp    $0xffffffff80000000,%rbx
  4022e7:	0f 8d d3 00 00 00    	jge    4023c0 <_ZNSt8_Rb_treeINSt7__cxx1112basic_stringIcSt11char_traitsIcESaIcEEESt4pairIKS5_S5_ESt10_Select1stIS8_ESt4lessIS5_ESaIS8_EE16_M_insert_uniqueERKS8_+0x220>
  4022ed:	4d 85 f6             	test   %r14,%r14
  4022f0:	0f 84 26 01 00 00    	je     40241c <_ZNSt8_Rb_treeINSt7__cxx1112basic_stringIcSt11char_traitsIcESaIcEEESt4pairIKS5_S5_ESt10_Select1stIS8_ESt4lessIS5_ESaIS8_EE16_M_insert_uniqueERKS8_+0x27c>
  4022f6:	4c 39 75 b0          	cmp    %r14,-0x50(%rbp)
  4022fa:	0f 84 ee 00 00 00    	je     4023ee <_ZNSt8_Rb_treeINSt7__cxx1112basic_stringIcSt11char_traitsIcESaIcEEESt4pairIKS5_S5_ESt10_Select1stIS8_ESt4lessIS5_ESaIS8_EE16_M_insert_uniqueERKS8_+0x24e>
  402300:	48 8b 45 b8          	mov    -0x48(%rbp),%rax
  402304:	4d 8b 7e 28          	mov    0x28(%r14),%r15
  402308:	48 8b 58 08          	mov    0x8(%rax),%rbx
  40230c:	4c 89 fa             	mov    %r15,%rdx
  40230f:	4c 39 fb             	cmp    %r15,%rbx
  402312:	48 0f 46 d3          	cmovbe %rbx,%rdx
  402316:	48 85 d2             	test   %rdx,%rdx
  402319:	0f 84 b0 00 00 00    	je     4023cf <_ZNSt8_Rb_treeINSt7__cxx1112basic_stringIcSt11char_traitsIcESaIcEEESt4pairIKS5_S5_ESt10_Select1stIS8_ESt4lessIS5_ESaIS8_EE16_M_insert_uniqueERKS8_+0x22f>
  40231f:	49 8b 76 20          	mov    0x20(%r14),%rsi
  402323:	48 8b 38             	mov    (%rax),%rdi
  402326:	e8 35 ee ff ff       	callq  401160 <memcmp@plt>
  40232b:	85 c0                	test   %eax,%eax
  40232d:	0f 84 9c 00 00 00    	je     4023cf <_ZNSt8_Rb_treeINSt7__cxx1112basic_stringIcSt11char_traitsIcESaIcEEESt4pairIKS5_S5_ESt10_Select1stIS8_ESt4lessIS5_ESaIS8_EE16_M_insert_uniqueERKS8_+0x22f>
  402333:	85 c0                	test   %eax,%eax
  402335:	0f 88 be 00 00 00    	js     4023f9 <_ZNSt8_Rb_treeINSt7__cxx1112basic_stringIcSt11char_traitsIcESaIcEEESt4pairIKS5_S5_ESt10_Select1stIS8_ESt4lessIS5_ESaIS8_EE16_M_insert_uniqueERKS8_+0x259>
  40233b:	45 31 ed             	xor    %r13d,%r13d
  40233e:	bf 60 00 00 00       	mov    $0x60,%edi
  402343:	e8 d8 ee ff ff       	callq  401220 <_Znwm@plt>
  402348:	48 8d 78 20          	lea    0x20(%rax),%rdi
  40234c:	48 89 c3             	mov    %rax,%rbx
  40234f:	4c 8b 65 b8          	mov    -0x48(%rbp),%r12
  402353:	4c 8d 7b 30          	lea    0x30(%rbx),%r15
  402357:	4c 89 7b 20          	mov    %r15,0x20(%rbx)
  40235b:	49 8b 34 24          	mov    (%r12),%rsi
  40235f:	48 89 f2             	mov    %rsi,%rdx
  402362:	49 03 54 24 08       	add    0x8(%r12),%rdx
  402367:	e8 34 f3 ff ff       	callq  4016a0 <_ZNSt7__cxx1112basic_stringIcSt11char_traitsIcESaIcEE12_M_constructIPKcEEvT_S8_St20forward_iterator_tag.isra.31>
  40236c:	49 8b 74 24 20       	mov    0x20(%r12),%rsi
  402371:	48 8d 43 50          	lea    0x50(%rbx),%rax
  402375:	48 8d 7b 40          	lea    0x40(%rbx),%rdi
  402379:	48 89 43 40          	mov    %rax,0x40(%rbx)
  40237d:	48 89 f2             	mov    %rsi,%rdx
  402380:	49 03 54 24 28       	add    0x28(%r12),%rdx
  402385:	e8 16 f3 ff ff       	callq  4016a0 <_ZNSt7__cxx1112basic_stringIcSt11char_traitsIcESaIcEE12_M_constructIPKcEEvT_S8_St20forward_iterator_tag.isra.31>
  40238a:	48 8b 4d b0          	mov    -0x50(%rbp),%rcx
  40238e:	4c 89 f2             	mov    %r14,%rdx
  402391:	41 0f b6 fd          	movzbl %r13b,%edi
  402395:	48 89 de             	mov    %rbx,%rsi
  402398:	e8 63 ed ff ff       	callq  401100 <_ZSt29_Rb_tree_insert_and_rebalancebPSt18_Rb_tree_node_baseS0_RS_@plt>
  40239d:	48 8b 45 c0          	mov    -0x40(%rbp),%rax
  4023a1:	ba 01 00 00 00       	mov    $0x1,%edx
  4023a6:	48 83 40 28 01       	addq   $0x1,0x28(%rax)
  4023ab:	48 83 c4 28          	add    $0x28,%rsp
  4023af:	48 89 d8             	mov    %rbx,%rax
  4023b2:	5b                   	pop    %rbx
  4023b3:	41 5c                	pop    %r12
  4023b5:	41 5d                	pop    %r13
  4023b7:	41 5e                	pop    %r14
  4023b9:	41 5f                	pop    %r15
  4023bb:	5d                   	pop    %rbp
  4023bc:	c3                   	retq   
  4023bd:	0f 1f 00             	nopl   (%rax)
  4023c0:	89 d8                	mov    %ebx,%eax
  4023c2:	e9 99 fe ff ff       	jmpq   402260 <_ZNSt8_Rb_treeINSt7__cxx1112basic_stringIcSt11char_traitsIcESaIcEEESt4pairIKS5_S5_ESt10_Select1stIS8_ESt4lessIS5_ESaIS8_EE16_M_insert_uniqueERKS8_+0xc0>
  4023c7:	4d 89 fe             	mov    %r15,%r14
  4023ca:	e9 27 ff ff ff       	jmpq   4022f6 <_ZNSt8_Rb_treeINSt7__cxx1112basic_stringIcSt11char_traitsIcESaIcEEESt4pairIKS5_S5_ESt10_Select1stIS8_ESt4lessIS5_ESaIS8_EE16_M_insert_uniqueERKS8_+0x156>
  4023cf:	4c 29 fb             	sub    %r15,%rbx
  4023d2:	48 81 fb ff ff ff 7f 	cmp    $0x7fffffff,%rbx
  4023d9:	0f 8f 5c ff ff ff    	jg     40233b <_ZNSt8_Rb_treeINSt7__cxx1112basic_stringIcSt11char_traitsIcESaIcEEESt4pairIKS5_S5_ESt10_Select1stIS8_ESt4lessIS5_ESaIS8_EE16_M_insert_uniqueERKS8_+0x19b>
  4023df:	48 81 fb 00 00 00 80 	cmp    $0xffffffff80000000,%rbx
  4023e6:	89 d8                	mov    %ebx,%eax
  4023e8:	0f 8d 45 ff ff ff    	jge    402333 <_ZNSt8_Rb_treeINSt7__cxx1112basic_stringIcSt11char_traitsIcESaIcEEESt4pairIKS5_S5_ESt10_Select1stIS8_ESt4lessIS5_ESaIS8_EE16_M_insert_uniqueERKS8_+0x193>
  4023ee:	41 bd 01 00 00 00    	mov    $0x1,%r13d
  4023f4:	e9 45 ff ff ff       	jmpq   40233e <_ZNSt8_Rb_treeINSt7__cxx1112basic_stringIcSt11char_traitsIcESaIcEEESt4pairIKS5_S5_ESt10_Select1stIS8_ESt4lessIS5_ESaIS8_EE16_M_insert_uniqueERKS8_+0x19e>
  4023f9:	bf 60 00 00 00       	mov    $0x60,%edi
  4023fe:	41 bd 01 00 00 00    	mov    $0x1,%r13d
  402404:	e8 17 ee ff ff       	callq  401220 <_Znwm@plt>
  402409:	48 89 c3             	mov    %rax,%rbx
  40240c:	48 8d 78 20          	lea    0x20(%rax),%rdi
  402410:	e9 3a ff ff ff       	jmpq   40234f <_ZNSt8_Rb_treeINSt7__cxx1112basic_stringIcSt11char_traitsIcESaIcEEESt4pairIKS5_S5_ESt10_Select1stIS8_ESt4lessIS5_ESaIS8_EE16_M_insert_uniqueERKS8_+0x1af>
  402415:	eb 1d                	jmp    402434 <_ZNSt8_Rb_treeINSt7__cxx1112basic_stringIcSt11char_traitsIcESaIcEEESt4pairIKS5_S5_ESt10_Select1stIS8_ESt4lessIS5_ESaIS8_EE16_M_insert_uniqueERKS8_+0x294>
  402417:	49 89 c4             	mov    %rax,%r12
  40241a:	eb 07                	jmp    402423 <_ZNSt8_Rb_treeINSt7__cxx1112basic_stringIcSt11char_traitsIcESaIcEEESt4pairIKS5_S5_ESt10_Select1stIS8_ESt4lessIS5_ESaIS8_EE16_M_insert_uniqueERKS8_+0x283>
  40241c:	31 c9                	xor    %ecx,%ecx
  40241e:	e9 48 fe ff ff       	jmpq   40226b <_ZNSt8_Rb_treeINSt7__cxx1112basic_stringIcSt11char_traitsIcESaIcEEESt4pairIKS5_S5_ESt10_Select1stIS8_ESt4lessIS5_ESaIS8_EE16_M_insert_uniqueERKS8_+0xcb>
  402423:	48 8b 7b 20          	mov    0x20(%rbx),%rdi
  402427:	49 39 ff             	cmp    %rdi,%r15
  40242a:	74 05                	je     402431 <_ZNSt8_Rb_treeINSt7__cxx1112basic_stringIcSt11char_traitsIcESaIcEEESt4pairIKS5_S5_ESt10_Select1stIS8_ESt4lessIS5_ESaIS8_EE16_M_insert_uniqueERKS8_+0x291>
  40242c:	e8 df ed ff ff       	callq  401210 <_ZdlPv@plt>
  402431:	4c 89 e0             	mov    %r12,%rax
  402434:	48 89 c7             	mov    %rax,%rdi
  402437:	e8 f4 ec ff ff       	callq  401130 <__cxa_begin_catch@plt>
  40243c:	48 89 df             	mov    %rbx,%rdi
  40243f:	e8 cc ed ff ff       	callq  401210 <_ZdlPv@plt>
  402444:	e8 57 ee ff ff       	callq  4012a0 <__cxa_rethrow@plt>
  402449:	48 89 c3             	mov    %rax,%rbx
  40244c:	e8 8f ee ff ff       	callq  4012e0 <__cxa_end_catch@plt>
  402451:	48 89 df             	mov    %rbx,%rdi
  402454:	e8 c7 ee ff ff       	callq  401320 <_Unwind_Resume@plt>
  402459:	0f 1f 80 00 00 00 00 	nopl   0x0(%rax)

0000000000402460 <_ZNSt8_Rb_treeINSt7__cxx1112basic_stringIcSt11char_traitsIcESaIcEEESt4pairIKS5_S5_ESt10_Select1stIS8_ESt4lessIS5_ESaIS8_EE8_M_eraseEPSt13_Rb_tree_nodeIS8_E>:
  402460:	48 85 f6             	test   %rsi,%rsi
  402463:	74 69                	je     4024ce <_ZNSt8_Rb_treeINSt7__cxx1112basic_stringIcSt11char_traitsIcESaIcEEESt4pairIKS5_S5_ESt10_Select1stIS8_ESt4lessIS5_ESaIS8_EE8_M_eraseEPSt13_Rb_tree_nodeIS8_E+0x6e>
  402465:	55                   	push   %rbp
  402466:	48 89 e5             	mov    %rsp,%rbp
  402469:	41 55                	push   %r13
  40246b:	41 54                	push   %r12
  40246d:	53                   	push   %rbx
  40246e:	49 89 fd             	mov    %rdi,%r13
  402471:	48 89 f3             	mov    %rsi,%rbx
  402474:	48 83 ec 08          	sub    $0x8,%rsp
  402478:	0f 1f 84 00 00 00 00 	nopl   0x0(%rax,%rax,1)
  40247f:	00 
  402480:	48 8b 73 18          	mov    0x18(%rbx),%rsi
  402484:	4c 89 ef             	mov    %r13,%rdi
  402487:	e8 d4 ff ff ff       	callq  402460 <_ZNSt8_Rb_treeINSt7__cxx1112basic_stringIcSt11char_traitsIcESaIcEEESt4pairIKS5_S5_ESt10_Select1stIS8_ESt4lessIS5_ESaIS8_EE8_M_eraseEPSt13_Rb_tree_nodeIS8_E>
  40248c:	48 8b 7b 40          	mov    0x40(%rbx),%rdi
  402490:	48 8d 43 50          	lea    0x50(%rbx),%rax
  402494:	4c 8b 63 10          	mov    0x10(%rbx),%r12
  402498:	48 39 c7             	cmp    %rax,%rdi
  40249b:	74 05                	je     4024a2 <_ZNSt8_Rb_treeINSt7__cxx1112basic_stringIcSt11char_traitsIcESaIcEEESt4pairIKS5_S5_ESt10_Select1stIS8_ESt4lessIS5_ESaIS8_EE8_M_eraseEPSt13_Rb_tree_nodeIS8_E+0x42>
  40249d:	e8 6e ed ff ff       	callq  401210 <_ZdlPv@plt>
  4024a2:	48 8b 7b 20          	mov    0x20(%rbx),%rdi
  4024a6:	48 8d 43 30          	lea    0x30(%rbx),%rax
  4024aa:	48 39 c7             	cmp    %rax,%rdi
  4024ad:	74 05                	je     4024b4 <_ZNSt8_Rb_treeINSt7__cxx1112basic_stringIcSt11char_traitsIcESaIcEEESt4pairIKS5_S5_ESt10_Select1stIS8_ESt4lessIS5_ESaIS8_EE8_M_eraseEPSt13_Rb_tree_nodeIS8_E+0x54>
  4024af:	e8 5c ed ff ff       	callq  401210 <_ZdlPv@plt>
  4024b4:	48 89 df             	mov    %rbx,%rdi
  4024b7:	4c 89 e3             	mov    %r12,%rbx
  4024ba:	e8 51 ed ff ff       	callq  401210 <_ZdlPv@plt>
  4024bf:	4d 85 e4             	test   %r12,%r12
  4024c2:	75 bc                	jne    402480 <_ZNSt8_Rb_treeINSt7__cxx1112basic_stringIcSt11char_traitsIcESaIcEEESt4pairIKS5_S5_ESt10_Select1stIS8_ESt4lessIS5_ESaIS8_EE8_M_eraseEPSt13_Rb_tree_nodeIS8_E+0x20>
  4024c4:	48 83 c4 08          	add    $0x8,%rsp
  4024c8:	5b                   	pop    %rbx
  4024c9:	41 5c                	pop    %r12
  4024cb:	41 5d                	pop    %r13
  4024cd:	5d                   	pop    %rbp
  4024ce:	f3 c3                	repz retq 

00000000004024d0 <_ZNSt8_Rb_treeINSt7__cxx1112basic_stringIcSt11char_traitsIcESaIcEEESt4pairIKS5_S5_ESt10_Select1stIS8_ESt4lessIS5_ESaIS8_EE7_M_copyINSE_11_Alloc_nodeEEEPSt13_Rb_tree_nodeIS8_EPKSI_SJ_RT_>:
  4024d0:	55                   	push   %rbp
  4024d1:	48 89 e5             	mov    %rsp,%rbp
  4024d4:	41 57                	push   %r15
  4024d6:	41 56                	push   %r14
  4024d8:	41 55                	push   %r13
  4024da:	41 54                	push   %r12
  4024dc:	49 89 ff             	mov    %rdi,%r15
  4024df:	53                   	push   %rbx
  4024e0:	bf 60 00 00 00       	mov    $0x60,%edi
  4024e5:	48 89 f3             	mov    %rsi,%rbx
  4024e8:	49 89 d5             	mov    %rdx,%r13
  4024eb:	48 83 ec 18          	sub    $0x18,%rsp
  4024ef:	48 89 4d c8          	mov    %rcx,-0x38(%rbp)
  4024f3:	e8 28 ed ff ff       	callq  401220 <_Znwm@plt>
  4024f8:	48 8b 73 20          	mov    0x20(%rbx),%rsi
  4024fc:	4c 8d 60 30          	lea    0x30(%rax),%r12
  402500:	48 8d 78 20          	lea    0x20(%rax),%rdi
  402504:	48 89 45 c0          	mov    %rax,-0x40(%rbp)
  402508:	49 89 c6             	mov    %rax,%r14
  40250b:	4c 89 60 20          	mov    %r12,0x20(%rax)
  40250f:	48 89 f2             	mov    %rsi,%rdx
  402512:	48 03 53 28          	add    0x28(%rbx),%rdx
  402516:	e8 85 f1 ff ff       	callq  4016a0 <_ZNSt7__cxx1112basic_stringIcSt11char_traitsIcESaIcEE12_M_constructIPKcEEvT_S8_St20forward_iterator_tag.isra.31>
  40251b:	48 8b 73 40          	mov    0x40(%rbx),%rsi
  40251f:	4c 89 f0             	mov    %r14,%rax
  402522:	49 8d 7e 40          	lea    0x40(%r14),%rdi
  402526:	48 83 c0 50          	add    $0x50,%rax
  40252a:	49 89 46 40          	mov    %rax,0x40(%r14)
  40252e:	48 89 f2             	mov    %rsi,%rdx
  402531:	48 03 53 48          	add    0x48(%rbx),%rdx
  402535:	e8 66 f1 ff ff       	callq  4016a0 <_ZNSt7__cxx1112basic_stringIcSt11char_traitsIcESaIcEE12_M_constructIPKcEEvT_S8_St20forward_iterator_tag.isra.31>
  40253a:	48 8b 73 18          	mov    0x18(%rbx),%rsi
  40253e:	48 8b 4d c0          	mov    -0x40(%rbp),%rcx
  402542:	8b 03                	mov    (%rbx),%eax
  402544:	48 85 f6             	test   %rsi,%rsi
  402547:	48 c7 41 10 00 00 00 	movq   $0x0,0x10(%rcx)
  40254e:	00 
  40254f:	49 89 ce             	mov    %rcx,%r14
  402552:	89 01                	mov    %eax,(%rcx)
  402554:	48 c7 41 18 00 00 00 	movq   $0x0,0x18(%rcx)
  40255b:	00 
  40255c:	4c 89 69 08          	mov    %r13,0x8(%rcx)
  402560:	74 13                	je     402575 <_ZNSt8_Rb_treeINSt7__cxx1112basic_stringIcSt11char_traitsIcESaIcEEESt4pairIKS5_S5_ESt10_Select1stIS8_ESt4lessIS5_ESaIS8_EE7_M_copyINSE_11_Alloc_nodeEEEPSt13_Rb_tree_nodeIS8_EPKSI_SJ_RT_+0xa5>
  402562:	48 8b 4d c8          	mov    -0x38(%rbp),%rcx
  402566:	4c 89 f2             	mov    %r14,%rdx
  402569:	4c 89 ff             	mov    %r15,%rdi
  40256c:	e8 5f ff ff ff       	callq  4024d0 <_ZNSt8_Rb_treeINSt7__cxx1112basic_stringIcSt11char_traitsIcESaIcEEESt4pairIKS5_S5_ESt10_Select1stIS8_ESt4lessIS5_ESaIS8_EE7_M_copyINSE_11_Alloc_nodeEEEPSt13_Rb_tree_nodeIS8_EPKSI_SJ_RT_>
  402571:	49 89 46 18          	mov    %rax,0x18(%r14)
  402575:	4c 8b 63 10          	mov    0x10(%rbx),%r12
  402579:	4c 8b 6d c0          	mov    -0x40(%rbp),%r13
  40257d:	4d 85 e4             	test   %r12,%r12
  402580:	0f 84 9f 00 00 00    	je     402625 <_ZNSt8_Rb_treeINSt7__cxx1112basic_stringIcSt11char_traitsIcESaIcEEESt4pairIKS5_S5_ESt10_Select1stIS8_ESt4lessIS5_ESaIS8_EE7_M_copyINSE_11_Alloc_nodeEEEPSt13_Rb_tree_nodeIS8_EPKSI_SJ_RT_+0x155>
  402586:	66 2e 0f 1f 84 00 00 	nopw   %cs:0x0(%rax,%rax,1)
  40258d:	00 00 00 
  402590:	bf 60 00 00 00       	mov    $0x60,%edi
  402595:	e8 86 ec ff ff       	callq  401220 <_Znwm@plt>
  40259a:	4c 8d 70 30          	lea    0x30(%rax),%r14
  40259e:	48 8d 78 20          	lea    0x20(%rax),%rdi
  4025a2:	48 89 c3             	mov    %rax,%rbx
  4025a5:	4c 89 70 20          	mov    %r14,0x20(%rax)
  4025a9:	49 8b 74 24 20       	mov    0x20(%r12),%rsi
  4025ae:	48 89 f2             	mov    %rsi,%rdx
  4025b1:	49 03 54 24 28       	add    0x28(%r12),%rdx
  4025b6:	e8 e5 f0 ff ff       	callq  4016a0 <_ZNSt7__cxx1112basic_stringIcSt11char_traitsIcESaIcEE12_M_constructIPKcEEvT_S8_St20forward_iterator_tag.isra.31>
  4025bb:	48 8d 43 50          	lea    0x50(%rbx),%rax
  4025bf:	48 8d 7b 40          	lea    0x40(%rbx),%rdi
  4025c3:	48 89 43 40          	mov    %rax,0x40(%rbx)
  4025c7:	49 8b 74 24 40       	mov    0x40(%r12),%rsi
  4025cc:	48 89 f2             	mov    %rsi,%rdx
  4025cf:	49 03 54 24 48       	add    0x48(%r12),%rdx
  4025d4:	e8 c7 f0 ff ff       	callq  4016a0 <_ZNSt7__cxx1112basic_stringIcSt11char_traitsIcESaIcEE12_M_constructIPKcEEvT_S8_St20forward_iterator_tag.isra.31>
  4025d9:	41 8b 04 24          	mov    (%r12),%eax
  4025dd:	48 c7 43 18 00 00 00 	movq   $0x0,0x18(%rbx)
  4025e4:	00 
  4025e5:	49 8b 74 24 18       	mov    0x18(%r12),%rsi
  4025ea:	48 c7 43 10 00 00 00 	movq   $0x0,0x10(%rbx)
  4025f1:	00 
  4025f2:	89 03                	mov    %eax,(%rbx)
  4025f4:	49 89 5d 10          	mov    %rbx,0x10(%r13)
  4025f8:	48 85 f6             	test   %rsi,%rsi
  4025fb:	4c 89 6b 08          	mov    %r13,0x8(%rbx)
  4025ff:	74 13                	je     402614 <_ZNSt8_Rb_treeINSt7__cxx1112basic_stringIcSt11char_traitsIcESaIcEEESt4pairIKS5_S5_ESt10_Select1stIS8_ESt4lessIS5_ESaIS8_EE7_M_copyINSE_11_Alloc_nodeEEEPSt13_Rb_tree_nodeIS8_EPKSI_SJ_RT_+0x144>
  402601:	48 8b 4d c8          	mov    -0x38(%rbp),%rcx
  402605:	48 89 da             	mov    %rbx,%rdx
  402608:	4c 89 ff             	mov    %r15,%rdi
  40260b:	e8 c0 fe ff ff       	callq  4024d0 <_ZNSt8_Rb_treeINSt7__cxx1112basic_stringIcSt11char_traitsIcESaIcEEESt4pairIKS5_S5_ESt10_Select1stIS8_ESt4lessIS5_ESaIS8_EE7_M_copyINSE_11_Alloc_nodeEEEPSt13_Rb_tree_nodeIS8_EPKSI_SJ_RT_>
  402610:	48 89 43 18          	mov    %rax,0x18(%rbx)
  402614:	4d 8b 64 24 10       	mov    0x10(%r12),%r12
  402619:	49 89 dd             	mov    %rbx,%r13
  40261c:	4d 85 e4             	test   %r12,%r12
  40261f:	0f 85 6b ff ff ff    	jne    402590 <_ZNSt8_Rb_treeINSt7__cxx1112basic_stringIcSt11char_traitsIcESaIcEEESt4pairIKS5_S5_ESt10_Select1stIS8_ESt4lessIS5_ESaIS8_EE7_M_copyINSE_11_Alloc_nodeEEEPSt13_Rb_tree_nodeIS8_EPKSI_SJ_RT_+0xc0>
  402625:	48 8b 45 c0          	mov    -0x40(%rbp),%rax
  402629:	48 83 c4 18          	add    $0x18,%rsp
  40262d:	5b                   	pop    %rbx
  40262e:	41 5c                	pop    %r12
  402630:	41 5d                	pop    %r13
  402632:	41 5e                	pop    %r14
  402634:	41 5f                	pop    %r15
  402636:	5d                   	pop    %rbp
  402637:	c3                   	retq   
  402638:	eb 21                	jmp    40265b <_ZNSt8_Rb_treeINSt7__cxx1112basic_stringIcSt11char_traitsIcESaIcEEESt4pairIKS5_S5_ESt10_Select1stIS8_ESt4lessIS5_ESaIS8_EE7_M_copyINSE_11_Alloc_nodeEEEPSt13_Rb_tree_nodeIS8_EPKSI_SJ_RT_+0x18b>
  40263a:	49 89 c4             	mov    %rax,%r12
  40263d:	eb 32                	jmp    402671 <_ZNSt8_Rb_treeINSt7__cxx1112basic_stringIcSt11char_traitsIcESaIcEEESt4pairIKS5_S5_ESt10_Select1stIS8_ESt4lessIS5_ESaIS8_EE7_M_copyINSE_11_Alloc_nodeEEEPSt13_Rb_tree_nodeIS8_EPKSI_SJ_RT_+0x1a1>
  40263f:	eb 75                	jmp    4026b6 <_ZNSt8_Rb_treeINSt7__cxx1112basic_stringIcSt11char_traitsIcESaIcEEESt4pairIKS5_S5_ESt10_Select1stIS8_ESt4lessIS5_ESaIS8_EE7_M_copyINSE_11_Alloc_nodeEEEPSt13_Rb_tree_nodeIS8_EPKSI_SJ_RT_+0x1e6>
  402641:	eb 3f                	jmp    402682 <_ZNSt8_Rb_treeINSt7__cxx1112basic_stringIcSt11char_traitsIcESaIcEEESt4pairIKS5_S5_ESt10_Select1stIS8_ESt4lessIS5_ESaIS8_EE7_M_copyINSE_11_Alloc_nodeEEEPSt13_Rb_tree_nodeIS8_EPKSI_SJ_RT_+0x1b2>
  402643:	48 89 c3             	mov    %rax,%rbx
  402646:	48 8b 45 c0          	mov    -0x40(%rbp),%rax
  40264a:	48 8b 78 20          	mov    0x20(%rax),%rdi
  40264e:	49 39 fc             	cmp    %rdi,%r12
  402651:	74 05                	je     402658 <_ZNSt8_Rb_treeINSt7__cxx1112basic_stringIcSt11char_traitsIcESaIcEEESt4pairIKS5_S5_ESt10_Select1stIS8_ESt4lessIS5_ESaIS8_EE7_M_copyINSE_11_Alloc_nodeEEEPSt13_Rb_tree_nodeIS8_EPKSI_SJ_RT_+0x188>
  402653:	e8 b8 eb ff ff       	callq  401210 <_ZdlPv@plt>
  402658:	48 89 d8             	mov    %rbx,%rax
  40265b:	48 89 c7             	mov    %rax,%rdi
  40265e:	e8 cd ea ff ff       	callq  401130 <__cxa_begin_catch@plt>
  402663:	48 8b 7d c0          	mov    -0x40(%rbp),%rdi
  402667:	e8 a4 eb ff ff       	callq  401210 <_ZdlPv@plt>
  40266c:	e8 2f ec ff ff       	callq  4012a0 <__cxa_rethrow@plt>
  402671:	48 8b 7b 20          	mov    0x20(%rbx),%rdi
  402675:	49 39 fe             	cmp    %rdi,%r14
  402678:	74 05                	je     40267f <_ZNSt8_Rb_treeINSt7__cxx1112basic_stringIcSt11char_traitsIcESaIcEEESt4pairIKS5_S5_ESt10_Select1stIS8_ESt4lessIS5_ESaIS8_EE7_M_copyINSE_11_Alloc_nodeEEEPSt13_Rb_tree_nodeIS8_EPKSI_SJ_RT_+0x1af>
  40267a:	e8 91 eb ff ff       	callq  401210 <_ZdlPv@plt>
  40267f:	4c 89 e0             	mov    %r12,%rax
  402682:	48 89 c7             	mov    %rax,%rdi
  402685:	e8 a6 ea ff ff       	callq  401130 <__cxa_begin_catch@plt>
  40268a:	48 89 df             	mov    %rbx,%rdi
  40268d:	e8 7e eb ff ff       	callq  401210 <_ZdlPv@plt>
  402692:	e8 09 ec ff ff       	callq  4012a0 <__cxa_rethrow@plt>
  402697:	48 89 c3             	mov    %rax,%rbx
  40269a:	eb 05                	jmp    4026a1 <_ZNSt8_Rb_treeINSt7__cxx1112basic_stringIcSt11char_traitsIcESaIcEEESt4pairIKS5_S5_ESt10_Select1stIS8_ESt4lessIS5_ESaIS8_EE7_M_copyINSE_11_Alloc_nodeEEEPSt13_Rb_tree_nodeIS8_EPKSI_SJ_RT_+0x1d1>
  40269c:	48 89 c3             	mov    %rax,%rbx
  40269f:	eb 0d                	jmp    4026ae <_ZNSt8_Rb_treeINSt7__cxx1112basic_stringIcSt11char_traitsIcESaIcEEESt4pairIKS5_S5_ESt10_Select1stIS8_ESt4lessIS5_ESaIS8_EE7_M_copyINSE_11_Alloc_nodeEEEPSt13_Rb_tree_nodeIS8_EPKSI_SJ_RT_+0x1de>
  4026a1:	e8 3a ec ff ff       	callq  4012e0 <__cxa_end_catch@plt>
  4026a6:	48 89 df             	mov    %rbx,%rdi
  4026a9:	e8 72 ec ff ff       	callq  401320 <_Unwind_Resume@plt>
  4026ae:	e8 2d ec ff ff       	callq  4012e0 <__cxa_end_catch@plt>
  4026b3:	48 89 d8             	mov    %rbx,%rax
  4026b6:	48 89 c7             	mov    %rax,%rdi
  4026b9:	e8 72 ea ff ff       	callq  401130 <__cxa_begin_catch@plt>
  4026be:	48 8b 75 c0          	mov    -0x40(%rbp),%rsi
  4026c2:	4c 89 ff             	mov    %r15,%rdi
  4026c5:	e8 96 fd ff ff       	callq  402460 <_ZNSt8_Rb_treeINSt7__cxx1112basic_stringIcSt11char_traitsIcESaIcEEESt4pairIKS5_S5_ESt10_Select1stIS8_ESt4lessIS5_ESaIS8_EE8_M_eraseEPSt13_Rb_tree_nodeIS8_E>
  4026ca:	e8 d1 eb ff ff       	callq  4012a0 <__cxa_rethrow@plt>
  4026cf:	48 89 c3             	mov    %rax,%rbx
  4026d2:	e8 09 ec ff ff       	callq  4012e0 <__cxa_end_catch@plt>
  4026d7:	48 89 df             	mov    %rbx,%rdi
  4026da:	e8 41 ec ff ff       	callq  401320 <_Unwind_Resume@plt>
  4026df:	90                   	nop

00000000004026e0 <_Z15ud_session_initv>:
  4026e0:	55                   	push   %rbp
  4026e1:	bf b8 00 00 00       	mov    $0xb8,%edi
  4026e6:	48 89 e5             	mov    %rsp,%rbp
  4026e9:	e8 32 eb ff ff       	callq  401220 <_Znwm@plt>
  4026ee:	48 89 c2             	mov    %rax,%rdx
  4026f1:	b9 17 00 00 00       	mov    $0x17,%ecx
  4026f6:	31 c0                	xor    %eax,%eax
  4026f8:	48 89 d7             	mov    %rdx,%rdi
  4026fb:	f3 48 ab             	rep stos %rax,%es:(%rdi)
  4026fe:	48 8d 4a 18          	lea    0x18(%rdx),%rcx
  402702:	48 8d 7a 50          	lea    0x50(%rdx),%rdi
  402706:	48 89 4a 08          	mov    %rcx,0x8(%rdx)
  40270a:	48 8d 4a 38          	lea    0x38(%rdx),%rcx
  40270e:	48 83 e7 f8          	and    $0xfffffffffffffff8,%rdi
  402712:	48 89 4a 28          	mov    %rcx,0x28(%rdx)
  402716:	48 8d 8a 90 00 00 00 	lea    0x90(%rdx),%rcx
  40271d:	48 89 8a a0 00 00 00 	mov    %rcx,0xa0(%rdx)
  402724:	48 89 8a a8 00 00 00 	mov    %rcx,0xa8(%rdx)
  40272b:	89 d1                	mov    %edx,%ecx
  40272d:	29 f9                	sub    %edi,%ecx
  40272f:	81 c1 88 00 00 00    	add    $0x88,%ecx
  402735:	c1 e9 03             	shr    $0x3,%ecx
  402738:	f3 48 ab             	rep stos %rax,%es:(%rdi)
  40273b:	48 89 d0             	mov    %rdx,%rax
  40273e:	5d                   	pop    %rbp
  40273f:	c3                   	retq   

0000000000402740 <_Z16ud_mem_pool_initi>:
  402740:	55                   	push   %rbp
  402741:	48 89 e5             	mov    %rsp,%rbp
  402744:	41 57                	push   %r15
  402746:	41 56                	push   %r14
  402748:	41 89 fe             	mov    %edi,%r14d
  40274b:	41 55                	push   %r13
  40274d:	41 54                	push   %r12
  40274f:	53                   	push   %rbx
  402750:	45 89 f4             	mov    %r14d,%r12d
  402753:	bf 28 00 00 00       	mov    $0x28,%edi
  402758:	41 c1 fc 0a          	sar    $0xa,%r12d
  40275c:	48 83 ec 18          	sub    $0x18,%rsp
  402760:	e8 1b eb ff ff       	callq  401280 <malloc@plt>
  402765:	41 81 fc 00 90 01 00 	cmp    $0x19000,%r12d
  40276c:	0f 8f 8c 00 00 00    	jg     4027fe <_Z16ud_mem_pool_initi+0xbe>
  402772:	49 63 fe             	movslq %r14d,%rdi
  402775:	49 89 c7             	mov    %rax,%r15
  402778:	e8 03 eb ff ff       	callq  401280 <malloc@plt>
  40277d:	49 63 d4             	movslq %r12d,%rdx
  402780:	be 01 00 00 00       	mov    $0x1,%esi
  402785:	49 89 47 08          	mov    %rax,0x8(%r15)
  402789:	48 8d 3c d5 00 00 00 	lea    0x0(,%rdx,8),%rdi
  402790:	00 
  402791:	48 89 c3             	mov    %rax,%rbx
  402794:	48 89 55 c8          	mov    %rdx,-0x38(%rbp)
  402798:	e8 03 ea ff ff       	callq  4011a0 <calloc@plt>
  40279d:	48 8b 55 c8          	mov    -0x38(%rbp),%rdx
  4027a1:	49 89 07             	mov    %rax,(%r15)
  4027a4:	49 89 c5             	mov    %rax,%r13
  4027a7:	45 89 67 1c          	mov    %r12d,0x1c(%r15)
  4027ab:	48 8d 3c 95 00 00 00 	lea    0x0(,%rdx,4),%rdi
  4027b2:	00 
  4027b3:	e8 c8 ea ff ff       	callq  401280 <malloc@plt>
  4027b8:	31 d2                	xor    %edx,%edx
  4027ba:	45 85 e4             	test   %r12d,%r12d
  4027bd:	49 89 47 10          	mov    %rax,0x10(%r15)
  4027c1:	45 89 77 20          	mov    %r14d,0x20(%r15)
  4027c5:	48 89 d9             	mov    %rbx,%rcx
  4027c8:	7e 22                	jle    4027ec <_Z16ud_mem_pool_initi+0xac>
  4027ca:	66 0f 1f 44 00 00    	nopw   0x0(%rax,%rax,1)
  4027d0:	49 89 4c d5 00       	mov    %rcx,0x0(%r13,%rdx,8)
  4027d5:	89 14 90             	mov    %edx,(%rax,%rdx,4)
  4027d8:	48 83 c2 01          	add    $0x1,%rdx
  4027dc:	48 81 c1 00 04 00 00 	add    $0x400,%rcx
  4027e3:	41 39 d4             	cmp    %edx,%r12d
  4027e6:	7f e8                	jg     4027d0 <_Z16ud_mem_pool_initi+0x90>
  4027e8:	45 89 67 18          	mov    %r12d,0x18(%r15)
  4027ec:	48 83 c4 18          	add    $0x18,%rsp
  4027f0:	4c 89 f8             	mov    %r15,%rax
  4027f3:	5b                   	pop    %rbx
  4027f4:	41 5c                	pop    %r12
  4027f6:	41 5d                	pop    %r13
  4027f8:	41 5e                	pop    %r14
  4027fa:	41 5f                	pop    %r15
  4027fc:	5d                   	pop    %rbp
  4027fd:	c3                   	retq   
  4027fe:	bf b0 2e 40 00       	mov    $0x402eb0,%edi
  402803:	e8 b8 ea ff ff       	callq  4012c0 <puts@plt>
  402808:	bf ff ff ff ff       	mov    $0xffffffff,%edi
  40280d:	e8 5e ea ff ff       	callq  401270 <exit@plt>
  402812:	0f 1f 40 00          	nopl   0x0(%rax)
  402816:	66 2e 0f 1f 84 00 00 	nopw   %cs:0x0(%rax,%rax,1)
  40281d:	00 00 00 

0000000000402820 <_Z14ud_mem_destroyP10mem_pool_s>:
  402820:	55                   	push   %rbp
  402821:	48 89 e5             	mov    %rsp,%rbp
  402824:	53                   	push   %rbx
  402825:	48 89 fb             	mov    %rdi,%rbx
  402828:	48 83 ec 08          	sub    $0x8,%rsp
  40282c:	48 8b 3f             	mov    (%rdi),%rdi
  40282f:	e8 2c ea ff ff       	callq  401260 <free@plt>
  402834:	48 8b 7b 10          	mov    0x10(%rbx),%rdi
  402838:	e8 23 ea ff ff       	callq  401260 <free@plt>
  40283d:	48 8b 7b 08          	mov    0x8(%rbx),%rdi
  402841:	48 83 c4 08          	add    $0x8,%rsp
  402845:	5b                   	pop    %rbx
  402846:	5d                   	pop    %rbp
  402847:	e9 14 ea ff ff       	jmpq   401260 <free@plt>
  40284c:	0f 1f 40 00          	nopl   0x0(%rax)

0000000000402850 <_Z13ud_mem_mallocP10mem_pool_s>:
  402850:	8b 47 18             	mov    0x18(%rdi),%eax
  402853:	85 c0                	test   %eax,%eax
  402855:	7e 21                	jle    402878 <_Z13ud_mem_mallocP10mem_pool_s+0x28>
  402857:	48 8b 57 10          	mov    0x10(%rdi),%rdx
  40285b:	48 63 c8             	movslq %eax,%rcx
  40285e:	83 e8 01             	sub    $0x1,%eax
  402861:	48 63 4c 8a fc       	movslq -0x4(%rdx,%rcx,4),%rcx
  402866:	48 8b 17             	mov    (%rdi),%rdx
  402869:	89 47 18             	mov    %eax,0x18(%rdi)
  40286c:	48 8d 04 ca          	lea    (%rdx,%rcx,8),%rax
  402870:	c3                   	retq   
  402871:	0f 1f 80 00 00 00 00 	nopl   0x0(%rax)
  402878:	31 c0                	xor    %eax,%eax
  40287a:	c3                   	retq   
  40287b:	0f 1f 44 00 00       	nopl   0x0(%rax,%rax,1)

0000000000402880 <_Z11ud_mem_freeP10mem_pool_sP11mem_index_s>:
  402880:	48 8b 06             	mov    (%rsi),%rax
  402883:	48 2b 47 08          	sub    0x8(%rdi),%rax
  402887:	48 63 4f 18          	movslq 0x18(%rdi),%rcx
  40288b:	48 8b 57 10          	mov    0x10(%rdi),%rdx
  40288f:	48 c1 f8 0a          	sar    $0xa,%rax
  402893:	89 04 8a             	mov    %eax,(%rdx,%rcx,4)
  402896:	83 47 18 01          	addl   $0x1,0x18(%rdi)
  40289a:	c3                   	retq   
  40289b:	0f 1f 44 00 00       	nopl   0x0(%rax,%rax,1)

00000000004028a0 <_Z4initii>:
  4028a0:	55                   	push   %rbp
  4028a1:	48 89 e5             	mov    %rsp,%rbp
  4028a4:	41 54                	push   %r12
  4028a6:	53                   	push   %rbx
  4028a7:	41 89 fc             	mov    %edi,%r12d
  4028aa:	bf 00 00 a0 00       	mov    $0xa00000,%edi
  4028af:	89 f3                	mov    %esi,%ebx
  4028b1:	48 81 ec 10 01 00 00 	sub    $0x110,%rsp
  4028b8:	64 48 8b 04 25 28 00 	mov    %fs:0x28,%rax
  4028bf:	00 00 
  4028c1:	48 89 45 e8          	mov    %rax,-0x18(%rbp)
  4028c5:	31 c0                	xor    %eax,%eax
  4028c7:	e8 74 fe ff ff       	callq  402740 <_Z16ud_mem_pool_initi>
  4028cc:	bf d5 2e 40 00       	mov    $0x402ed5,%edi
  4028d1:	48 89 05 e0 18 20 00 	mov    %rax,0x2018e0(%rip)        # 6041b8 <mem_pool>
  4028d8:	e8 e3 e9 ff ff       	callq  4012c0 <puts@plt>
  4028dd:	48 8b 3d d4 18 20 00 	mov    0x2018d4(%rip),%rdi        # 6041b8 <mem_pool>
  4028e4:	e8 37 ff ff ff       	callq  402820 <_Z14ud_mem_destroyP10mem_pool_s>
  4028e9:	48 8d 95 e0 fe ff ff 	lea    -0x120(%rbp),%rdx
  4028f0:	44 89 e6             	mov    %r12d,%esi
  4028f3:	bf ea 2e 40 00       	mov    $0x402eea,%edi
  4028f8:	e8 f3 e8 ff ff       	callq  4011f0 <uv_ip4_addr@plt>
  4028fd:	48 8b 3d 2c 19 20 00 	mov    0x20192c(%rip),%rdi        # 604230 <loop>
  402904:	48 8d b5 f0 fe ff ff 	lea    -0x110(%rbp),%rsi
  40290b:	e8 30 e9 ff ff       	callq  401240 <uv_tcp_init@plt>
  402910:	48 8d b5 e0 fe ff ff 	lea    -0x120(%rbp),%rsi
  402917:	48 8d bd f0 fe ff ff 	lea    -0x110(%rbp),%rdi
  40291e:	31 d2                	xor    %edx,%edx
  402920:	e8 cb e7 ff ff       	callq  4010f0 <uv_tcp_bind@plt>
  402925:	48 8d bd f0 fe ff ff 	lea    -0x110(%rbp),%rdi
  40292c:	ba 80 17 40 00       	mov    $0x401780,%edx
  402931:	89 de                	mov    %ebx,%esi
  402933:	e8 88 e8 ff ff       	callq  4011c0 <uv_listen@plt>
  402938:	85 c0                	test   %eax,%eax
  40293a:	75 33                	jne    40296f <_Z4initii+0xcf>
  40293c:	bf ff 2e 40 00       	mov    $0x402eff,%edi
  402941:	e8 7a e9 ff ff       	callq  4012c0 <puts@plt>
  402946:	48 8b 3d e3 18 20 00 	mov    0x2018e3(%rip),%rdi        # 604230 <loop>
  40294d:	31 f6                	xor    %esi,%esi
  40294f:	e8 bc e7 ff ff       	callq  401110 <uv_run@plt>
  402954:	48 8b 45 e8          	mov    -0x18(%rbp),%rax
  402958:	64 48 33 04 25 28 00 	xor    %fs:0x28,%rax
  40295f:	00 00 
  402961:	75 1e                	jne    402981 <_Z4initii+0xe1>
  402963:	48 81 c4 10 01 00 00 	add    $0x110,%rsp
  40296a:	5b                   	pop    %rbx
  40296b:	41 5c                	pop    %r12
  40296d:	5d                   	pop    %rbp
  40296e:	c3                   	retq   
  40296f:	bf f2 2e 40 00       	mov    $0x402ef2,%edi
  402974:	e8 47 e9 ff ff       	callq  4012c0 <puts@plt>
  402979:	83 cf ff             	or     $0xffffffff,%edi
  40297c:	e8 ef e8 ff ff       	callq  401270 <exit@plt>
  402981:	e8 ca e8 ff ff       	callq  401250 <__stack_chk_fail@plt>
  402986:	66 2e 0f 1f 84 00 00 	nopw   %cs:0x0(%rax,%rax,1)
  40298d:	00 00 00 

0000000000402990 <_Z9http_initv>:
  402990:	55                   	push   %rbp
  402991:	bf 20 00 00 00       	mov    $0x20,%edi
  402996:	48 89 e5             	mov    %rsp,%rbp
  402999:	e8 e2 e8 ff ff       	callq  401280 <malloc@plt>
  40299e:	31 f6                	xor    %esi,%esi
  4029a0:	48 89 c7             	mov    %rax,%rdi
  4029a3:	48 89 05 16 18 20 00 	mov    %rax,0x201816(%rip)        # 6041c0 <parser>
  4029aa:	e8 91 e9 ff ff       	callq  401340 <http_parser_init@plt>
  4029af:	5d                   	pop    %rbp
  4029b0:	bf 0f 2f 40 00       	mov    $0x402f0f,%edi
  4029b5:	48 c7 05 20 18 20 00 	movq   $0x401800,0x201820(%rip)        # 6041e0 <settings>
  4029bc:	00 18 40 00 
  4029c0:	48 c7 05 4d 18 20 00 	movq   $0x401e00,0x20184d(%rip)        # 604218 <settings+0x38>
  4029c7:	00 1e 40 00 
  4029cb:	48 c7 05 12 18 20 00 	movq   $0x401810,0x201812(%rip)        # 6041e8 <settings+0x8>
  4029d2:	10 18 40 00 
  4029d6:	48 c7 05 17 18 20 00 	movq   $0x401940,0x201817(%rip)        # 6041f8 <settings+0x18>
  4029dd:	40 19 40 00 
  4029e1:	48 c7 05 14 18 20 00 	movq   $0x401a80,0x201814(%rip)        # 604200 <settings+0x20>
  4029e8:	80 1a 40 00 
  4029ec:	48 c7 05 19 18 20 00 	movq   $0x401a00,0x201819(%rip)        # 604210 <settings+0x30>
  4029f3:	00 1a 40 00 
  4029f7:	e9 c4 e8 ff ff       	jmpq   4012c0 <puts@plt>
  4029fc:	0f 1f 40 00          	nopl   0x0(%rax)

0000000000402a00 <_Z10my_handlerPKcP11uv_stream_s>:
  402a00:	48 89 fa             	mov    %rdi,%rdx
  402a03:	be 28 2f 40 00       	mov    $0x402f28,%esi
  402a08:	bf 01 00 00 00       	mov    $0x1,%edi
  402a0d:	31 c0                	xor    %eax,%eax
  402a0f:	e9 cc e6 ff ff       	jmpq   4010e0 <__printf_chk@plt>
  402a14:	66 90                	xchg   %ax,%ax
  402a16:	66 2e 0f 1f 84 00 00 	nopw   %cs:0x0(%rax,%rax,1)
  402a1d:	00 00 00 

0000000000402a20 <_Z9bench_memv>:
  402a20:	55                   	push   %rbp
  402a21:	bf 00 00 a0 00       	mov    $0xa00000,%edi
  402a26:	48 89 e5             	mov    %rsp,%rbp
  402a29:	41 57                	push   %r15
  402a2b:	41 56                	push   %r14
  402a2d:	41 55                	push   %r13
  402a2f:	41 54                	push   %r12
  402a31:	53                   	push   %rbx
  402a32:	48 83 ec 58          	sub    $0x58,%rsp
  402a36:	64 48 8b 04 25 28 00 	mov    %fs:0x28,%rax
  402a3d:	00 00 
  402a3f:	48 89 45 c8          	mov    %rax,-0x38(%rbp)
  402a43:	31 c0                	xor    %eax,%eax
  402a45:	e8 f6 fc ff ff       	callq  402740 <_Z16ud_mem_pool_initi>
  402a4a:	48 8d 7d a0          	lea    -0x60(%rbp),%rdi
  402a4e:	31 f6                	xor    %esi,%esi
  402a50:	48 89 05 61 17 20 00 	mov    %rax,0x201761(%rip)        # 6041b8 <mem_pool>
  402a57:	e8 74 e8 ff ff       	callq  4012d0 <gettimeofday@plt>
  402a5c:	c7 45 84 50 c3 00 00 	movl   $0xc350,-0x7c(%rbp)
  402a63:	0f 1f 44 00 00       	nopl   0x0(%rax,%rax,1)
  402a68:	48 8b 3d 49 17 20 00 	mov    0x201749(%rip),%rdi        # 6041b8 <mem_pool>
  402a6f:	e8 dc fd ff ff       	callq  402850 <_Z13ud_mem_mallocP10mem_pool_s>
  402a74:	48 8b 3d 3d 17 20 00 	mov    0x20173d(%rip),%rdi        # 6041b8 <mem_pool>
  402a7b:	48 89 45 88          	mov    %rax,-0x78(%rbp)
  402a7f:	e8 cc fd ff ff       	callq  402850 <_Z13ud_mem_mallocP10mem_pool_s>
  402a84:	48 8b 3d 2d 17 20 00 	mov    0x20172d(%rip),%rdi        # 6041b8 <mem_pool>
  402a8b:	49 89 c7             	mov    %rax,%r15
  402a8e:	e8 bd fd ff ff       	callq  402850 <_Z13ud_mem_mallocP10mem_pool_s>
  402a93:	48 8b 3d 1e 17 20 00 	mov    0x20171e(%rip),%rdi        # 6041b8 <mem_pool>
  402a9a:	49 89 c6             	mov    %rax,%r14
  402a9d:	e8 ae fd ff ff       	callq  402850 <_Z13ud_mem_mallocP10mem_pool_s>
  402aa2:	48 8b 3d 0f 17 20 00 	mov    0x20170f(%rip),%rdi        # 6041b8 <mem_pool>
  402aa9:	49 89 c5             	mov    %rax,%r13
  402aac:	e8 9f fd ff ff       	callq  402850 <_Z13ud_mem_mallocP10mem_pool_s>
  402ab1:	48 8b 3d 00 17 20 00 	mov    0x201700(%rip),%rdi        # 6041b8 <mem_pool>
  402ab8:	49 89 c4             	mov    %rax,%r12
  402abb:	e8 90 fd ff ff       	callq  402850 <_Z13ud_mem_mallocP10mem_pool_s>
  402ac0:	48 8b 3d f1 16 20 00 	mov    0x2016f1(%rip),%rdi        # 6041b8 <mem_pool>
  402ac7:	48 89 c3             	mov    %rax,%rbx
  402aca:	e8 81 fd ff ff       	callq  402850 <_Z13ud_mem_mallocP10mem_pool_s>
  402acf:	48 8b 3d e2 16 20 00 	mov    0x2016e2(%rip),%rdi        # 6041b8 <mem_pool>
  402ad6:	48 89 45 98          	mov    %rax,-0x68(%rbp)
  402ada:	e8 71 fd ff ff       	callq  402850 <_Z13ud_mem_mallocP10mem_pool_s>
  402adf:	48 8b 75 88          	mov    -0x78(%rbp),%rsi
  402ae3:	48 8b 3d ce 16 20 00 	mov    0x2016ce(%rip),%rdi        # 6041b8 <mem_pool>
  402aea:	48 89 45 90          	mov    %rax,-0x70(%rbp)
  402aee:	e8 8d fd ff ff       	callq  402880 <_Z11ud_mem_freeP10mem_pool_sP11mem_index_s>
  402af3:	48 8b 3d be 16 20 00 	mov    0x2016be(%rip),%rdi        # 6041b8 <mem_pool>
  402afa:	4c 89 fe             	mov    %r15,%rsi
  402afd:	e8 7e fd ff ff       	callq  402880 <_Z11ud_mem_freeP10mem_pool_sP11mem_index_s>
  402b02:	48 8b 3d af 16 20 00 	mov    0x2016af(%rip),%rdi        # 6041b8 <mem_pool>
  402b09:	4c 89 f6             	mov    %r14,%rsi
  402b0c:	e8 6f fd ff ff       	callq  402880 <_Z11ud_mem_freeP10mem_pool_sP11mem_index_s>
  402b11:	48 8b 3d a0 16 20 00 	mov    0x2016a0(%rip),%rdi        # 6041b8 <mem_pool>
  402b18:	4c 89 ee             	mov    %r13,%rsi
  402b1b:	e8 60 fd ff ff       	callq  402880 <_Z11ud_mem_freeP10mem_pool_sP11mem_index_s>
  402b20:	48 8b 3d 91 16 20 00 	mov    0x201691(%rip),%rdi        # 6041b8 <mem_pool>
  402b27:	4c 89 e6             	mov    %r12,%rsi
  402b2a:	e8 51 fd ff ff       	callq  402880 <_Z11ud_mem_freeP10mem_pool_sP11mem_index_s>
  402b2f:	48 8b 3d 82 16 20 00 	mov    0x201682(%rip),%rdi        # 6041b8 <mem_pool>
  402b36:	48 89 de             	mov    %rbx,%rsi
  402b39:	e8 42 fd ff ff       	callq  402880 <_Z11ud_mem_freeP10mem_pool_sP11mem_index_s>
  402b3e:	48 8b 75 98          	mov    -0x68(%rbp),%rsi
  402b42:	48 8b 3d 6f 16 20 00 	mov    0x20166f(%rip),%rdi        # 6041b8 <mem_pool>
  402b49:	e8 32 fd ff ff       	callq  402880 <_Z11ud_mem_freeP10mem_pool_sP11mem_index_s>
  402b4e:	48 8b 45 90          	mov    -0x70(%rbp),%rax
  402b52:	48 8b 3d 5f 16 20 00 	mov    0x20165f(%rip),%rdi        # 6041b8 <mem_pool>
  402b59:	48 89 c6             	mov    %rax,%rsi
  402b5c:	e8 1f fd ff ff       	callq  402880 <_Z11ud_mem_freeP10mem_pool_sP11mem_index_s>
  402b61:	83 6d 84 01          	subl   $0x1,-0x7c(%rbp)
  402b65:	0f 85 fd fe ff ff    	jne    402a68 <_Z9bench_memv+0x48>
  402b6b:	48 8d 7d b0          	lea    -0x50(%rbp),%rdi
  402b6f:	31 f6                	xor    %esi,%esi
  402b71:	e8 5a e7 ff ff       	callq  4012d0 <gettimeofday@plt>
  402b76:	48 8b 55 b0          	mov    -0x50(%rbp),%rdx
  402b7a:	48 2b 55 a0          	sub    -0x60(%rbp),%rdx
  402b7e:	be 58 2f 40 00       	mov    $0x402f58,%esi
  402b83:	bf 01 00 00 00       	mov    $0x1,%edi
  402b88:	31 c0                	xor    %eax,%eax
  402b8a:	48 69 d2 40 42 0f 00 	imul   $0xf4240,%rdx,%rdx
  402b91:	48 2b 55 a8          	sub    -0x58(%rbp),%rdx
  402b95:	48 03 55 b8          	add    -0x48(%rbp),%rdx
  402b99:	e8 42 e5 ff ff       	callq  4010e0 <__printf_chk@plt>
  402b9e:	48 8b 3d 13 16 20 00 	mov    0x201613(%rip),%rdi        # 6041b8 <mem_pool>
  402ba5:	e8 76 fc ff ff       	callq  402820 <_Z14ud_mem_destroyP10mem_pool_s>
  402baa:	48 8b 45 c8          	mov    -0x38(%rbp),%rax
  402bae:	64 48 33 04 25 28 00 	xor    %fs:0x28,%rax
  402bb5:	00 00 
  402bb7:	75 0f                	jne    402bc8 <_Z9bench_memv+0x1a8>
  402bb9:	48 83 c4 58          	add    $0x58,%rsp
  402bbd:	5b                   	pop    %rbx
  402bbe:	41 5c                	pop    %r12
  402bc0:	41 5d                	pop    %r13
  402bc2:	41 5e                	pop    %r14
  402bc4:	41 5f                	pop    %r15
  402bc6:	5d                   	pop    %rbp
  402bc7:	c3                   	retq   
  402bc8:	e8 83 e6 ff ff       	callq  401250 <__stack_chk_fail@plt>
  402bcd:	0f 1f 00             	nopl   (%rax)

0000000000402bd0 <_Z11bench_mem_2v>:
  402bd0:	55                   	push   %rbp
  402bd1:	31 f6                	xor    %esi,%esi
  402bd3:	48 89 e5             	mov    %rsp,%rbp
  402bd6:	48 83 ec 30          	sub    $0x30,%rsp
  402bda:	48 8d 7d d0          	lea    -0x30(%rbp),%rdi
  402bde:	64 48 8b 04 25 28 00 	mov    %fs:0x28,%rax
  402be5:	00 00 
  402be7:	48 89 45 f8          	mov    %rax,-0x8(%rbp)
  402beb:	31 c0                	xor    %eax,%eax
  402bed:	e8 de e6 ff ff       	callq  4012d0 <gettimeofday@plt>
  402bf2:	48 8d 7d e0          	lea    -0x20(%rbp),%rdi
  402bf6:	31 f6                	xor    %esi,%esi
  402bf8:	e8 d3 e6 ff ff       	callq  4012d0 <gettimeofday@plt>
  402bfd:	48 8b 55 e0          	mov    -0x20(%rbp),%rdx
  402c01:	48 2b 55 d0          	sub    -0x30(%rbp),%rdx
  402c05:	31 c0                	xor    %eax,%eax
  402c07:	be 6c 2f 40 00       	mov    $0x402f6c,%esi
  402c0c:	bf 01 00 00 00       	mov    $0x1,%edi
  402c11:	48 69 d2 40 42 0f 00 	imul   $0xf4240,%rdx,%rdx
  402c18:	48 2b 55 d8          	sub    -0x28(%rbp),%rdx
  402c1c:	48 03 55 e8          	add    -0x18(%rbp),%rdx
  402c20:	e8 bb e4 ff ff       	callq  4010e0 <__printf_chk@plt>
  402c25:	48 8b 45 f8          	mov    -0x8(%rbp),%rax
  402c29:	64 48 33 04 25 28 00 	xor    %fs:0x28,%rax
  402c30:	00 00 
  402c32:	75 02                	jne    402c36 <_Z11bench_mem_2v+0x66>
  402c34:	c9                   	leaveq 
  402c35:	c3                   	retq   
  402c36:	e8 15 e6 ff ff       	callq  401250 <__stack_chk_fail@plt>
  402c3b:	0f 1f 44 00 00       	nopl   0x0(%rax,%rax,1)

0000000000402c40 <_ZNSt6vectorIPFvPKcP11uv_stream_sESaIS5_EED1Ev>:
  402c40:	48 8b 3f             	mov    (%rdi),%rdi
  402c43:	48 85 ff             	test   %rdi,%rdi
  402c46:	74 08                	je     402c50 <_ZNSt6vectorIPFvPKcP11uv_stream_sESaIS5_EED1Ev+0x10>
  402c48:	e9 c3 e5 ff ff       	jmpq   401210 <_ZdlPv@plt>
  402c4d:	0f 1f 00             	nopl   (%rax)
  402c50:	f3 c3                	repz retq 
  402c52:	66 2e 0f 1f 84 00 00 	nopw   %cs:0x0(%rax,%rax,1)
  402c59:	00 00 00 
  402c5c:	0f 1f 40 00          	nopl   0x0(%rax)

0000000000402c60 <__libc_csu_init>:
  402c60:	41 57                	push   %r15
  402c62:	41 56                	push   %r14
  402c64:	41 89 ff             	mov    %edi,%r15d
  402c67:	41 55                	push   %r13
  402c69:	41 54                	push   %r12
  402c6b:	4c 8d 25 56 11 20 00 	lea    0x201156(%rip),%r12        # 603dc8 <__frame_dummy_init_array_entry>
  402c72:	55                   	push   %rbp
  402c73:	48 8d 2d 5e 11 20 00 	lea    0x20115e(%rip),%rbp        # 603dd8 <__init_array_end>
  402c7a:	53                   	push   %rbx
  402c7b:	49 89 f6             	mov    %rsi,%r14
  402c7e:	49 89 d5             	mov    %rdx,%r13
  402c81:	4c 29 e5             	sub    %r12,%rbp
  402c84:	48 83 ec 08          	sub    $0x8,%rsp
  402c88:	48 c1 fd 03          	sar    $0x3,%rbp
  402c8c:	e8 17 e4 ff ff       	callq  4010a8 <_init>
  402c91:	48 85 ed             	test   %rbp,%rbp
  402c94:	74 20                	je     402cb6 <__libc_csu_init+0x56>
  402c96:	31 db                	xor    %ebx,%ebx
  402c98:	0f 1f 84 00 00 00 00 	nopl   0x0(%rax,%rax,1)
  402c9f:	00 
  402ca0:	4c 89 ea             	mov    %r13,%rdx
  402ca3:	4c 89 f6             	mov    %r14,%rsi
  402ca6:	44 89 ff             	mov    %r15d,%edi
  402ca9:	41 ff 14 dc          	callq  *(%r12,%rbx,8)
  402cad:	48 83 c3 01          	add    $0x1,%rbx
  402cb1:	48 39 eb             	cmp    %rbp,%rbx
  402cb4:	75 ea                	jne    402ca0 <__libc_csu_init+0x40>
  402cb6:	48 83 c4 08          	add    $0x8,%rsp
  402cba:	5b                   	pop    %rbx
  402cbb:	5d                   	pop    %rbp
  402cbc:	41 5c                	pop    %r12
  402cbe:	41 5d                	pop    %r13
  402cc0:	41 5e                	pop    %r14
  402cc2:	41 5f                	pop    %r15
  402cc4:	c3                   	retq   
  402cc5:	90                   	nop
  402cc6:	66 2e 0f 1f 84 00 00 	nopw   %cs:0x0(%rax,%rax,1)
  402ccd:	00 00 00 

0000000000402cd0 <__libc_csu_fini>:
  402cd0:	f3 c3                	repz retq 

Disassembly of section .fini:

0000000000402cd4 <_fini>:
  402cd4:	48 83 ec 08          	sub    $0x8,%rsp
  402cd8:	48 83 c4 08          	add    $0x8,%rsp
  402cdc:	c3                   	retq   

server:     file format elf64-x86-64


Disassembly of section .init:

00000000004010e8 <_init>:
  4010e8:	48 83 ec 08          	sub    $0x8,%rsp
  4010ec:	48 8b 05 05 2f 20 00 	mov    0x202f05(%rip),%rax        # 603ff8 <_DYNAMIC+0x210>
  4010f3:	48 85 c0             	test   %rax,%rax
  4010f6:	74 05                	je     4010fd <_init+0x15>
  4010f8:	e8 c3 02 00 00       	callq  4013c0 <__libc_start_main@plt+0x10>
  4010fd:	48 83 c4 08          	add    $0x8,%rsp
  401101:	c3                   	retq   

Disassembly of section .plt:

0000000000401110 <__printf_chk@plt-0x10>:
  401110:	ff 35 f2 2e 20 00    	pushq  0x202ef2(%rip)        # 604008 <_GLOBAL_OFFSET_TABLE_+0x8>
  401116:	ff 25 f4 2e 20 00    	jmpq   *0x202ef4(%rip)        # 604010 <_GLOBAL_OFFSET_TABLE_+0x10>
  40111c:	0f 1f 40 00          	nopl   0x0(%rax)

0000000000401120 <__printf_chk@plt>:
  401120:	ff 25 f2 2e 20 00    	jmpq   *0x202ef2(%rip)        # 604018 <_GLOBAL_OFFSET_TABLE_+0x18>
  401126:	68 00 00 00 00       	pushq  $0x0
  40112b:	e9 e0 ff ff ff       	jmpq   401110 <_init+0x28>

0000000000401130 <uv_tcp_bind@plt>:
  401130:	ff 25 ea 2e 20 00    	jmpq   *0x202eea(%rip)        # 604020 <_GLOBAL_OFFSET_TABLE_+0x20>
  401136:	68 01 00 00 00       	pushq  $0x1
  40113b:	e9 d0 ff ff ff       	jmpq   401110 <_init+0x28>

0000000000401140 <_ZSt29_Rb_tree_insert_and_rebalancebPSt18_Rb_tree_node_baseS0_RS_@plt>:
  401140:	ff 25 e2 2e 20 00    	jmpq   *0x202ee2(%rip)        # 604028 <_GLOBAL_OFFSET_TABLE_+0x28>
  401146:	68 02 00 00 00       	pushq  $0x2
  40114b:	e9 c0 ff ff ff       	jmpq   401110 <_init+0x28>

0000000000401150 <uv_run@plt>:
  401150:	ff 25 da 2e 20 00    	jmpq   *0x202eda(%rip)        # 604030 <_GLOBAL_OFFSET_TABLE_+0x30>
  401156:	68 03 00 00 00       	pushq  $0x3
  40115b:	e9 b0 ff ff ff       	jmpq   401110 <_init+0x28>

0000000000401160 <uv_close@plt>:
  401160:	ff 25 d2 2e 20 00    	jmpq   *0x202ed2(%rip)        # 604038 <_GLOBAL_OFFSET_TABLE_+0x38>
  401166:	68 04 00 00 00       	pushq  $0x4
  40116b:	e9 a0 ff ff ff       	jmpq   401110 <_init+0x28>

0000000000401170 <__cxa_begin_catch@plt>:
  401170:	ff 25 ca 2e 20 00    	jmpq   *0x202eca(%rip)        # 604040 <_GLOBAL_OFFSET_TABLE_+0x40>
  401176:	68 05 00 00 00       	pushq  $0x5
  40117b:	e9 90 ff ff ff       	jmpq   401110 <_init+0x28>

0000000000401180 <uv_write@plt>:
  401180:	ff 25 c2 2e 20 00    	jmpq   *0x202ec2(%rip)        # 604048 <_GLOBAL_OFFSET_TABLE_+0x48>
  401186:	68 06 00 00 00       	pushq  $0x6
  40118b:	e9 80 ff ff ff       	jmpq   401110 <_init+0x28>

0000000000401190 <strlen@plt>:
  401190:	ff 25 ba 2e 20 00    	jmpq   *0x202eba(%rip)        # 604050 <_GLOBAL_OFFSET_TABLE_+0x50>
  401196:	68 07 00 00 00       	pushq  $0x7
  40119b:	e9 70 ff ff ff       	jmpq   401110 <_init+0x28>

00000000004011a0 <memcmp@plt>:
  4011a0:	ff 25 b2 2e 20 00    	jmpq   *0x202eb2(%rip)        # 604058 <_GLOBAL_OFFSET_TABLE_+0x58>
  4011a6:	68 08 00 00 00       	pushq  $0x8
  4011ab:	e9 60 ff ff ff       	jmpq   401110 <_init+0x28>

00000000004011b0 <_ZNSt7__cxx1112basic_stringIcSt11char_traitsIcESaIcEE9_M_assignERKS4_@plt>:
  4011b0:	ff 25 aa 2e 20 00    	jmpq   *0x202eaa(%rip)        # 604060 <_GLOBAL_OFFSET_TABLE_+0x60>
  4011b6:	68 09 00 00 00       	pushq  $0x9
  4011bb:	e9 50 ff ff ff       	jmpq   401110 <_init+0x28>

00000000004011c0 <memset@plt>:
  4011c0:	ff 25 a2 2e 20 00    	jmpq   *0x202ea2(%rip)        # 604068 <_GLOBAL_OFFSET_TABLE_+0x68>
  4011c6:	68 0a 00 00 00       	pushq  $0xa
  4011cb:	e9 40 ff ff ff       	jmpq   401110 <_init+0x28>

00000000004011d0 <__sprintf_chk@plt>:
  4011d0:	ff 25 9a 2e 20 00    	jmpq   *0x202e9a(%rip)        # 604070 <_GLOBAL_OFFSET_TABLE_+0x70>
  4011d6:	68 0b 00 00 00       	pushq  $0xb
  4011db:	e9 30 ff ff ff       	jmpq   401110 <_init+0x28>

00000000004011e0 <calloc@plt>:
  4011e0:	ff 25 92 2e 20 00    	jmpq   *0x202e92(%rip)        # 604078 <_GLOBAL_OFFSET_TABLE_+0x78>
  4011e6:	68 0c 00 00 00       	pushq  $0xc
  4011eb:	e9 20 ff ff ff       	jmpq   401110 <_init+0x28>

00000000004011f0 <_ZSt19__throw_logic_errorPKc@plt>:
  4011f0:	ff 25 8a 2e 20 00    	jmpq   *0x202e8a(%rip)        # 604080 <_GLOBAL_OFFSET_TABLE_+0x80>
  4011f6:	68 0d 00 00 00       	pushq  $0xd
  4011fb:	e9 10 ff ff ff       	jmpq   401110 <_init+0x28>

0000000000401200 <uv_listen@plt>:
  401200:	ff 25 82 2e 20 00    	jmpq   *0x202e82(%rip)        # 604088 <_GLOBAL_OFFSET_TABLE_+0x88>
  401206:	68 0e 00 00 00       	pushq  $0xe
  40120b:	e9 00 ff ff ff       	jmpq   401110 <_init+0x28>

0000000000401210 <uv_accept@plt>:
  401210:	ff 25 7a 2e 20 00    	jmpq   *0x202e7a(%rip)        # 604090 <_GLOBAL_OFFSET_TABLE_+0x90>
  401216:	68 0f 00 00 00       	pushq  $0xf
  40121b:	e9 f0 fe ff ff       	jmpq   401110 <_init+0x28>

0000000000401220 <memcpy@plt>:
  401220:	ff 25 72 2e 20 00    	jmpq   *0x202e72(%rip)        # 604098 <_GLOBAL_OFFSET_TABLE_+0x98>
  401226:	68 10 00 00 00       	pushq  $0x10
  40122b:	e9 e0 fe ff ff       	jmpq   401110 <_init+0x28>

0000000000401230 <uv_ip4_addr@plt>:
  401230:	ff 25 6a 2e 20 00    	jmpq   *0x202e6a(%rip)        # 6040a0 <_GLOBAL_OFFSET_TABLE_+0xa0>
  401236:	68 11 00 00 00       	pushq  $0x11
  40123b:	e9 d0 fe ff ff       	jmpq   401110 <_init+0x28>

0000000000401240 <__cxa_atexit@plt>:
  401240:	ff 25 62 2e 20 00    	jmpq   *0x202e62(%rip)        # 6040a8 <_GLOBAL_OFFSET_TABLE_+0xa8>
  401246:	68 12 00 00 00       	pushq  $0x12
  40124b:	e9 c0 fe ff ff       	jmpq   401110 <_init+0x28>

0000000000401250 <_ZdlPv@plt>:
  401250:	ff 25 5a 2e 20 00    	jmpq   *0x202e5a(%rip)        # 6040b0 <_GLOBAL_OFFSET_TABLE_+0xb0>
  401256:	68 13 00 00 00       	pushq  $0x13
  40125b:	e9 b0 fe ff ff       	jmpq   401110 <_init+0x28>

0000000000401260 <_Znwm@plt>:
  401260:	ff 25 52 2e 20 00    	jmpq   *0x202e52(%rip)        # 6040b8 <_GLOBAL_OFFSET_TABLE_+0xb8>
  401266:	68 14 00 00 00       	pushq  $0x14
  40126b:	e9 a0 fe ff ff       	jmpq   401110 <_init+0x28>

0000000000401270 <_ZSt18_Rb_tree_decrementPSt18_Rb_tree_node_base@plt>:
  401270:	ff 25 4a 2e 20 00    	jmpq   *0x202e4a(%rip)        # 6040c0 <_GLOBAL_OFFSET_TABLE_+0xc0>
  401276:	68 15 00 00 00       	pushq  $0x15
  40127b:	e9 90 fe ff ff       	jmpq   401110 <_init+0x28>

0000000000401280 <uv_tcp_init@plt>:
  401280:	ff 25 42 2e 20 00    	jmpq   *0x202e42(%rip)        # 6040c8 <_GLOBAL_OFFSET_TABLE_+0xc8>
  401286:	68 16 00 00 00       	pushq  $0x16
  40128b:	e9 80 fe ff ff       	jmpq   401110 <_init+0x28>

0000000000401290 <__stack_chk_fail@plt>:
  401290:	ff 25 3a 2e 20 00    	jmpq   *0x202e3a(%rip)        # 6040d0 <_GLOBAL_OFFSET_TABLE_+0xd0>
  401296:	68 17 00 00 00       	pushq  $0x17
  40129b:	e9 70 fe ff ff       	jmpq   401110 <_init+0x28>

00000000004012a0 <free@plt>:
  4012a0:	ff 25 32 2e 20 00    	jmpq   *0x202e32(%rip)        # 6040d8 <_GLOBAL_OFFSET_TABLE_+0xd8>
  4012a6:	68 18 00 00 00       	pushq  $0x18
  4012ab:	e9 60 fe ff ff       	jmpq   401110 <_init+0x28>

00000000004012b0 <uv_default_loop@plt>:
  4012b0:	ff 25 2a 2e 20 00    	jmpq   *0x202e2a(%rip)        # 6040e0 <_GLOBAL_OFFSET_TABLE_+0xe0>
  4012b6:	68 19 00 00 00       	pushq  $0x19
  4012bb:	e9 50 fe ff ff       	jmpq   401110 <_init+0x28>

00000000004012c0 <exit@plt>:
  4012c0:	ff 25 22 2e 20 00    	jmpq   *0x202e22(%rip)        # 6040e8 <_GLOBAL_OFFSET_TABLE_+0xe8>
  4012c6:	68 1a 00 00 00       	pushq  $0x1a
  4012cb:	e9 40 fe ff ff       	jmpq   401110 <_init+0x28>

00000000004012d0 <malloc@plt>:
  4012d0:	ff 25 1a 2e 20 00    	jmpq   *0x202e1a(%rip)        # 6040f0 <_GLOBAL_OFFSET_TABLE_+0xf0>
  4012d6:	68 1b 00 00 00       	pushq  $0x1b
  4012db:	e9 30 fe ff ff       	jmpq   401110 <_init+0x28>

00000000004012e0 <uv_read_start@plt>:
  4012e0:	ff 25 12 2e 20 00    	jmpq   *0x202e12(%rip)        # 6040f8 <_GLOBAL_OFFSET_TABLE_+0xf8>
  4012e6:	68 1c 00 00 00       	pushq  $0x1c
  4012eb:	e9 20 fe ff ff       	jmpq   401110 <_init+0x28>

00000000004012f0 <__cxa_rethrow@plt>:
  4012f0:	ff 25 0a 2e 20 00    	jmpq   *0x202e0a(%rip)        # 604100 <_GLOBAL_OFFSET_TABLE_+0x100>
  4012f6:	68 1d 00 00 00       	pushq  $0x1d
  4012fb:	e9 10 fe ff ff       	jmpq   401110 <_init+0x28>

0000000000401300 <_ZSt24__throw_out_of_range_fmtPKcz@plt>:
  401300:	ff 25 02 2e 20 00    	jmpq   *0x202e02(%rip)        # 604108 <_GLOBAL_OFFSET_TABLE_+0x108>
  401306:	68 1e 00 00 00       	pushq  $0x1e
  40130b:	e9 00 fe ff ff       	jmpq   401110 <_init+0x28>

0000000000401310 <puts@plt>:
  401310:	ff 25 fa 2d 20 00    	jmpq   *0x202dfa(%rip)        # 604110 <_GLOBAL_OFFSET_TABLE_+0x110>
  401316:	68 1f 00 00 00       	pushq  $0x1f
  40131b:	e9 f0 fd ff ff       	jmpq   401110 <_init+0x28>

0000000000401320 <gettimeofday@plt>:
  401320:	ff 25 f2 2d 20 00    	jmpq   *0x202df2(%rip)        # 604118 <_GLOBAL_OFFSET_TABLE_+0x118>
  401326:	68 20 00 00 00       	pushq  $0x20
  40132b:	e9 e0 fd ff ff       	jmpq   401110 <_init+0x28>

0000000000401330 <__cxa_end_catch@plt>:
  401330:	ff 25 ea 2d 20 00    	jmpq   *0x202dea(%rip)        # 604120 <_GLOBAL_OFFSET_TABLE_+0x120>
  401336:	68 21 00 00 00       	pushq  $0x21
  40133b:	e9 d0 fd ff ff       	jmpq   401110 <_init+0x28>

0000000000401340 <__gxx_personality_v0@plt>:
  401340:	ff 25 e2 2d 20 00    	jmpq   *0x202de2(%rip)        # 604128 <_GLOBAL_OFFSET_TABLE_+0x128>
  401346:	68 22 00 00 00       	pushq  $0x22
  40134b:	e9 c0 fd ff ff       	jmpq   401110 <_init+0x28>

0000000000401350 <__memcpy_chk@plt>:
  401350:	ff 25 da 2d 20 00    	jmpq   *0x202dda(%rip)        # 604130 <_GLOBAL_OFFSET_TABLE_+0x130>
  401356:	68 23 00 00 00       	pushq  $0x23
  40135b:	e9 b0 fd ff ff       	jmpq   401110 <_init+0x28>

0000000000401360 <http_parser_execute@plt>:
  401360:	ff 25 d2 2d 20 00    	jmpq   *0x202dd2(%rip)        # 604138 <_GLOBAL_OFFSET_TABLE_+0x138>
  401366:	68 24 00 00 00       	pushq  $0x24
  40136b:	e9 a0 fd ff ff       	jmpq   401110 <_init+0x28>

0000000000401370 <_Unwind_Resume@plt>:
  401370:	ff 25 ca 2d 20 00    	jmpq   *0x202dca(%rip)        # 604140 <_GLOBAL_OFFSET_TABLE_+0x140>
  401376:	68 25 00 00 00       	pushq  $0x25
  40137b:	e9 90 fd ff ff       	jmpq   401110 <_init+0x28>

0000000000401380 <_ZNSt7__cxx1112basic_stringIcSt11char_traitsIcESaIcEE9_M_createERmm@plt>:
  401380:	ff 25 c2 2d 20 00    	jmpq   *0x202dc2(%rip)        # 604148 <_GLOBAL_OFFSET_TABLE_+0x148>
  401386:	68 26 00 00 00       	pushq  $0x26
  40138b:	e9 80 fd ff ff       	jmpq   401110 <_init+0x28>

0000000000401390 <http_parser_init@plt>:
  401390:	ff 25 ba 2d 20 00    	jmpq   *0x202dba(%rip)        # 604150 <_GLOBAL_OFFSET_TABLE_+0x150>
  401396:	68 27 00 00 00       	pushq  $0x27
  40139b:	e9 70 fd ff ff       	jmpq   401110 <_init+0x28>

00000000004013a0 <uv_buf_init@plt>:
  4013a0:	ff 25 b2 2d 20 00    	jmpq   *0x202db2(%rip)        # 604158 <_GLOBAL_OFFSET_TABLE_+0x158>
  4013a6:	68 28 00 00 00       	pushq  $0x28
  4013ab:	e9 60 fd ff ff       	jmpq   401110 <_init+0x28>

00000000004013b0 <__libc_start_main@plt>:
  4013b0:	ff 25 aa 2d 20 00    	jmpq   *0x202daa(%rip)        # 604160 <_GLOBAL_OFFSET_TABLE_+0x160>
  4013b6:	68 29 00 00 00       	pushq  $0x29
  4013bb:	e9 50 fd ff ff       	jmpq   401110 <_init+0x28>

Disassembly of section .plt.got:

00000000004013c0 <.plt.got>:
  4013c0:	ff 25 32 2c 20 00    	jmpq   *0x202c32(%rip)        # 603ff8 <_DYNAMIC+0x210>
  4013c6:	66 90                	xchg   %ax,%ax

Disassembly of section .text:

00000000004013d0 <main>:
  4013d0:	55                   	push   %rbp
  4013d1:	48 89 e5             	mov    %rsp,%rbp
  4013d4:	e8 d7 fe ff ff       	callq  4012b0 <uv_default_loop@plt>
  4013d9:	48 89 05 50 2e 20 00 	mov    %rax,0x202e50(%rip)        # 604230 <loop>
  4013e0:	e8 db 16 00 00       	callq  402ac0 <_Z9http_initv>
  4013e5:	be 80 00 00 00       	mov    $0x80,%esi
  4013ea:	bf 58 1b 00 00       	mov    $0x1b58,%edi
  4013ef:	e8 ec 15 00 00       	callq  4029e0 <_Z4initii>
  4013f4:	31 c0                	xor    %eax,%eax
  4013f6:	5d                   	pop    %rbp
  4013f7:	c3                   	retq   
  4013f8:	0f 1f 84 00 00 00 00 	nopl   0x0(%rax,%rax,1)
  4013ff:	00 

0000000000401400 <_GLOBAL__sub_I_loop>:
  401400:	ba 70 41 60 00       	mov    $0x604170,%edx
  401405:	be a0 41 60 00       	mov    $0x6041a0,%esi
  40140a:	bf e0 2e 40 00       	mov    $0x402ee0,%edi
  40140f:	48 c7 05 86 2d 20 00 	movq   $0x0,0x202d86(%rip)        # 6041a0 <rq_handler_chain>
  401416:	00 00 00 00 
  40141a:	48 c7 05 83 2d 20 00 	movq   $0x0,0x202d83(%rip)        # 6041a8 <rq_handler_chain+0x8>
  401421:	00 00 00 00 
  401425:	48 c7 05 80 2d 20 00 	movq   $0x0,0x202d80(%rip)        # 6041b0 <rq_handler_chain+0x10>
  40142c:	00 00 00 00 
  401430:	e9 0b fe ff ff       	jmpq   401240 <__cxa_atexit@plt>
  401435:	66 2e 0f 1f 84 00 00 	nopw   %cs:0x0(%rax,%rax,1)
  40143c:	00 00 00 
  40143f:	90                   	nop

0000000000401440 <_start>:
  401440:	31 ed                	xor    %ebp,%ebp
  401442:	49 89 d1             	mov    %rdx,%r9
  401445:	5e                   	pop    %rsi
  401446:	48 89 e2             	mov    %rsp,%rdx
  401449:	48 83 e4 f0          	and    $0xfffffffffffffff0,%rsp
  40144d:	50                   	push   %rax
  40144e:	54                   	push   %rsp
  40144f:	49 c7 c0 70 2f 40 00 	mov    $0x402f70,%r8
  401456:	48 c7 c1 00 2f 40 00 	mov    $0x402f00,%rcx
  40145d:	48 c7 c7 d0 13 40 00 	mov    $0x4013d0,%rdi
  401464:	e8 47 ff ff ff       	callq  4013b0 <__libc_start_main@plt>
  401469:	f4                   	hlt    
  40146a:	66 0f 1f 44 00 00    	nopw   0x0(%rax,%rax,1)

0000000000401470 <deregister_tm_clones>:
  401470:	b8 7f 41 60 00       	mov    $0x60417f,%eax
  401475:	55                   	push   %rbp
  401476:	48 2d 78 41 60 00    	sub    $0x604178,%rax
  40147c:	48 83 f8 0e          	cmp    $0xe,%rax
  401480:	48 89 e5             	mov    %rsp,%rbp
  401483:	76 1b                	jbe    4014a0 <deregister_tm_clones+0x30>
  401485:	b8 00 00 00 00       	mov    $0x0,%eax
  40148a:	48 85 c0             	test   %rax,%rax
  40148d:	74 11                	je     4014a0 <deregister_tm_clones+0x30>
  40148f:	5d                   	pop    %rbp
  401490:	bf 78 41 60 00       	mov    $0x604178,%edi
  401495:	ff e0                	jmpq   *%rax
  401497:	66 0f 1f 84 00 00 00 	nopw   0x0(%rax,%rax,1)
  40149e:	00 00 
  4014a0:	5d                   	pop    %rbp
  4014a1:	c3                   	retq   
  4014a2:	0f 1f 40 00          	nopl   0x0(%rax)
  4014a6:	66 2e 0f 1f 84 00 00 	nopw   %cs:0x0(%rax,%rax,1)
  4014ad:	00 00 00 

00000000004014b0 <register_tm_clones>:
  4014b0:	be 78 41 60 00       	mov    $0x604178,%esi
  4014b5:	55                   	push   %rbp
  4014b6:	48 81 ee 78 41 60 00 	sub    $0x604178,%rsi
  4014bd:	48 c1 fe 03          	sar    $0x3,%rsi
  4014c1:	48 89 e5             	mov    %rsp,%rbp
  4014c4:	48 89 f0             	mov    %rsi,%rax
  4014c7:	48 c1 e8 3f          	shr    $0x3f,%rax
  4014cb:	48 01 c6             	add    %rax,%rsi
  4014ce:	48 d1 fe             	sar    %rsi
  4014d1:	74 15                	je     4014e8 <register_tm_clones+0x38>
  4014d3:	b8 00 00 00 00       	mov    $0x0,%eax
  4014d8:	48 85 c0             	test   %rax,%rax
  4014db:	74 0b                	je     4014e8 <register_tm_clones+0x38>
  4014dd:	5d                   	pop    %rbp
  4014de:	bf 78 41 60 00       	mov    $0x604178,%edi
  4014e3:	ff e0                	jmpq   *%rax
  4014e5:	0f 1f 00             	nopl   (%rax)
  4014e8:	5d                   	pop    %rbp
  4014e9:	c3                   	retq   
  4014ea:	66 0f 1f 44 00 00    	nopw   0x0(%rax,%rax,1)

00000000004014f0 <__do_global_dtors_aux>:
  4014f0:	80 3d 89 2c 20 00 00 	cmpb   $0x0,0x202c89(%rip)        # 604180 <completed.7594>
  4014f7:	75 11                	jne    40150a <__do_global_dtors_aux+0x1a>
  4014f9:	55                   	push   %rbp
  4014fa:	48 89 e5             	mov    %rsp,%rbp
  4014fd:	e8 6e ff ff ff       	callq  401470 <deregister_tm_clones>
  401502:	5d                   	pop    %rbp
  401503:	c6 05 76 2c 20 00 01 	movb   $0x1,0x202c76(%rip)        # 604180 <completed.7594>
  40150a:	f3 c3                	repz retq 
  40150c:	0f 1f 40 00          	nopl   0x0(%rax)

0000000000401510 <frame_dummy>:
  401510:	bf e0 3d 60 00       	mov    $0x603de0,%edi
  401515:	48 83 3f 00          	cmpq   $0x0,(%rdi)
  401519:	75 05                	jne    401520 <frame_dummy+0x10>
  40151b:	eb 93                	jmp    4014b0 <register_tm_clones>
  40151d:	0f 1f 00             	nopl   (%rax)
  401520:	b8 00 00 00 00       	mov    $0x0,%eax
  401525:	48 85 c0             	test   %rax,%rax
  401528:	74 f1                	je     40151b <frame_dummy+0xb>
  40152a:	55                   	push   %rbp
  40152b:	48 89 e5             	mov    %rsp,%rbp
  40152e:	ff d0                	callq  *%rax
  401530:	5d                   	pop    %rbp
  401531:	e9 7a ff ff ff       	jmpq   4014b0 <register_tm_clones>
  401536:	66 2e 0f 1f 84 00 00 	nopw   %cs:0x0(%rax,%rax,1)
  40153d:	00 00 00 

0000000000401540 <_Z19handle_after_writerP10uv_write_si>:
  401540:	55                   	push   %rbp
  401541:	48 89 e5             	mov    %rsp,%rbp
  401544:	53                   	push   %rbx
  401545:	48 89 fb             	mov    %rdi,%rbx
  401548:	48 83 ec 08          	sub    $0x8,%rsp
  40154c:	85 f6                	test   %esi,%esi
  40154e:	74 0a                	je     40155a <_Z19handle_after_writerP10uv_write_si+0x1a>
  401550:	bf 84 2f 40 00       	mov    $0x402f84,%edi
  401555:	e8 b6 fd ff ff       	callq  401310 <puts@plt>
  40155a:	48 8b 3d 57 2c 20 00 	mov    0x202c57(%rip),%rdi        # 6041b8 <mem_pool>
  401561:	48 83 c4 08          	add    $0x8,%rsp
  401565:	48 89 de             	mov    %rbx,%rsi
  401568:	5b                   	pop    %rbx
  401569:	5d                   	pop    %rbp
  40156a:	e9 f1 13 00 00       	jmpq   402960 <_Z7ud_freeP10mem_pool_sPv>
  40156f:	90                   	nop

0000000000401570 <_Z16handle_alloc_bufP11uv_handle_smP8uv_buf_t>:
  401570:	55                   	push   %rbp
  401571:	48 8b 3d 40 2c 20 00 	mov    0x202c40(%rip),%rdi        # 6041b8 <mem_pool>
  401578:	48 89 e5             	mov    %rsp,%rbp
  40157b:	41 54                	push   %r12
  40157d:	53                   	push   %rbx
  40157e:	49 89 f4             	mov    %rsi,%r12
  401581:	48 89 d3             	mov    %rdx,%rbx
  401584:	e8 f7 13 00 00       	callq  402980 <_Z15ud_malloc_largeP10mem_pool_s>
  401589:	4c 89 63 08          	mov    %r12,0x8(%rbx)
  40158d:	48 89 03             	mov    %rax,(%rbx)
  401590:	5b                   	pop    %rbx
  401591:	41 5c                	pop    %r12
  401593:	5d                   	pop    %rbp
  401594:	c3                   	retq   
  401595:	90                   	nop
  401596:	66 2e 0f 1f 84 00 00 	nopw   %cs:0x0(%rax,%rax,1)
  40159d:	00 00 00 

00000000004015a0 <_Z17handle_after_readP11uv_stream_slPK8uv_buf_t>:
  4015a0:	55                   	push   %rbp
  4015a1:	48 85 f6             	test   %rsi,%rsi
  4015a4:	48 89 e5             	mov    %rsp,%rbp
  4015a7:	41 56                	push   %r14
  4015a9:	41 55                	push   %r13
  4015ab:	49 89 f5             	mov    %rsi,%r13
  4015ae:	41 54                	push   %r12
  4015b0:	49 89 fc             	mov    %rdi,%r12
  4015b3:	53                   	push   %rbx
  4015b4:	0f 88 f6 00 00 00    	js     4016b0 <_Z17handle_after_readP11uv_stream_slPK8uv_buf_t+0x110>
  4015ba:	48 89 d3             	mov    %rdx,%rbx
  4015bd:	0f 84 d0 00 00 00    	je     401693 <_Z17handle_after_readP11uv_stream_slPK8uv_buf_t+0xf3>
  4015c3:	48 8b 05 de 2b 20 00 	mov    0x202bde(%rip),%rax        # 6041a8 <rq_handler_chain+0x8>
  4015ca:	48 2b 05 cf 2b 20 00 	sub    0x202bcf(%rip),%rax        # 6041a0 <rq_handler_chain>
  4015d1:	45 31 f6             	xor    %r14d,%r14d
  4015d4:	48 c1 f8 03          	sar    $0x3,%rax
  4015d8:	48 85 c0             	test   %rax,%rax
  4015db:	74 50                	je     40162d <_Z17handle_after_readP11uv_stream_slPK8uv_buf_t+0x8d>
  4015dd:	0f 1f 00             	nopl   (%rax)
  4015e0:	bf 9b 2f 40 00       	mov    $0x402f9b,%edi
  4015e5:	e8 26 fd ff ff       	callq  401310 <puts@plt>
  4015ea:	48 8b 05 af 2b 20 00 	mov    0x202baf(%rip),%rax        # 6041a0 <rq_handler_chain>
  4015f1:	48 8b 15 b0 2b 20 00 	mov    0x202bb0(%rip),%rdx        # 6041a8 <rq_handler_chain+0x8>
  4015f8:	48 29 c2             	sub    %rax,%rdx
  4015fb:	48 c1 fa 03          	sar    $0x3,%rdx
  4015ff:	4c 39 f2             	cmp    %r14,%rdx
  401602:	0f 86 d9 00 00 00    	jbe    4016e1 <_Z17handle_after_readP11uv_stream_slPK8uv_buf_t+0x141>
  401608:	4c 89 e6             	mov    %r12,%rsi
  40160b:	48 8b 3b             	mov    (%rbx),%rdi
  40160e:	42 ff 14 f0          	callq  *(%rax,%r14,8)
  401612:	48 8b 05 8f 2b 20 00 	mov    0x202b8f(%rip),%rax        # 6041a8 <rq_handler_chain+0x8>
  401619:	48 2b 05 80 2b 20 00 	sub    0x202b80(%rip),%rax        # 6041a0 <rq_handler_chain>
  401620:	49 83 c6 01          	add    $0x1,%r14
  401624:	48 c1 f8 03          	sar    $0x3,%rax
  401628:	4c 39 f0             	cmp    %r14,%rax
  40162b:	77 b3                	ja     4015e0 <_Z17handle_after_readP11uv_stream_slPK8uv_buf_t+0x40>
  40162d:	e8 ee 10 00 00       	callq  402720 <_Z15ud_session_initv>
  401632:	48 8b 3d 87 2b 20 00 	mov    0x202b87(%rip),%rdi        # 6041c0 <parser>
  401639:	48 8b 13             	mov    (%rbx),%rdx
  40163c:	4c 89 e9             	mov    %r13,%rcx
  40163f:	4c 89 20             	mov    %r12,(%rax)
  401642:	be e0 41 60 00       	mov    $0x6041e0,%esi
  401647:	48 89 47 18          	mov    %rax,0x18(%rdi)
  40164b:	e8 10 fd ff ff       	callq  401360 <http_parser_execute@plt>
  401650:	48 63 d0             	movslq %eax,%rdx
  401653:	49 39 d5             	cmp    %rdx,%r13
  401656:	74 20                	je     401678 <_Z17handle_after_readP11uv_stream_slPK8uv_buf_t+0xd8>
  401658:	89 c2                	mov    %eax,%edx
  40165a:	bf 01 00 00 00       	mov    $0x1,%edi
  40165f:	4c 89 e9             	mov    %r13,%rcx
  401662:	be a8 2f 40 00       	mov    $0x402fa8,%esi
  401667:	31 c0                	xor    %eax,%eax
  401669:	e8 b2 fa ff ff       	callq  401120 <__printf_chk@plt>
  40166e:	bf bd 2f 40 00       	mov    $0x402fbd,%edi
  401673:	e8 98 fc ff ff       	callq  401310 <puts@plt>
  401678:	48 83 3b 00          	cmpq   $0x0,(%rbx)
  40167c:	74 5a                	je     4016d8 <_Z17handle_after_readP11uv_stream_slPK8uv_buf_t+0x138>
  40167e:	48 8b 53 08          	mov    0x8(%rbx),%rdx
  401682:	be c9 2f 40 00       	mov    $0x402fc9,%esi
  401687:	bf 01 00 00 00       	mov    $0x1,%edi
  40168c:	31 c0                	xor    %eax,%eax
  40168e:	e8 8d fa ff ff       	callq  401120 <__printf_chk@plt>
  401693:	48 8b 33             	mov    (%rbx),%rsi
  401696:	48 8b 3d 1b 2b 20 00 	mov    0x202b1b(%rip),%rdi        # 6041b8 <mem_pool>
  40169d:	5b                   	pop    %rbx
  40169e:	41 5c                	pop    %r12
  4016a0:	41 5d                	pop    %r13
  4016a2:	41 5e                	pop    %r14
  4016a4:	5d                   	pop    %rbp
  4016a5:	e9 16 13 00 00       	jmpq   4029c0 <_Z13ud_free_largeP10mem_pool_sPv>
  4016aa:	66 0f 1f 44 00 00    	nopw   0x0(%rax,%rax,1)
  4016b0:	48 81 fe 01 f0 ff ff 	cmp    $0xfffffffffffff001,%rsi
  4016b7:	74 0a                	je     4016c3 <_Z17handle_after_readP11uv_stream_slPK8uv_buf_t+0x123>
  4016b9:	bf 90 2f 40 00       	mov    $0x402f90,%edi
  4016be:	e8 4d fc ff ff       	callq  401310 <puts@plt>
  4016c3:	5b                   	pop    %rbx
  4016c4:	4c 89 e7             	mov    %r12,%rdi
  4016c7:	31 f6                	xor    %esi,%esi
  4016c9:	41 5c                	pop    %r12
  4016cb:	41 5d                	pop    %r13
  4016cd:	41 5e                	pop    %r14
  4016cf:	5d                   	pop    %rbp
  4016d0:	e9 8b fa ff ff       	jmpq   401160 <uv_close@plt>
  4016d5:	0f 1f 00             	nopl   (%rax)
  4016d8:	5b                   	pop    %rbx
  4016d9:	41 5c                	pop    %r12
  4016db:	41 5d                	pop    %r13
  4016dd:	41 5e                	pop    %r14
  4016df:	5d                   	pop    %rbp
  4016e0:	c3                   	retq   
  4016e1:	4c 89 f6             	mov    %r14,%rsi
  4016e4:	bf 40 30 40 00       	mov    $0x403040,%edi
  4016e9:	31 c0                	xor    %eax,%eax
  4016eb:	e8 10 fc ff ff       	callq  401300 <_ZSt24__throw_out_of_range_fmtPKcz@plt>

00000000004016f0 <_ZNSt7__cxx1112basic_stringIcSt11char_traitsIcESaIcEE12_M_constructIPKcEEvT_S8_St20forward_iterator_tag.isra.31>:
  4016f0:	55                   	push   %rbp
  4016f1:	48 89 e5             	mov    %rsp,%rbp
  4016f4:	41 55                	push   %r13
  4016f6:	41 54                	push   %r12
  4016f8:	53                   	push   %rbx
  4016f9:	49 89 fc             	mov    %rdi,%r12
  4016fc:	49 89 f5             	mov    %rsi,%r13
  4016ff:	48 83 ec 18          	sub    $0x18,%rsp
  401703:	64 48 8b 04 25 28 00 	mov    %fs:0x28,%rax
  40170a:	00 00 
  40170c:	48 89 45 d8          	mov    %rax,-0x28(%rbp)
  401710:	31 c0                	xor    %eax,%eax
  401712:	48 85 f6             	test   %rsi,%rsi
  401715:	75 19                	jne    401730 <_ZNSt7__cxx1112basic_stringIcSt11char_traitsIcESaIcEE12_M_constructIPKcEEvT_S8_St20forward_iterator_tag.isra.31+0x40>
  401717:	48 85 d2             	test   %rdx,%rdx
  40171a:	74 14                	je     401730 <_ZNSt7__cxx1112basic_stringIcSt11char_traitsIcESaIcEE12_M_constructIPKcEEvT_S8_St20forward_iterator_tag.isra.31+0x40>
  40171c:	bf 90 30 40 00       	mov    $0x403090,%edi
  401721:	e8 ca fa ff ff       	callq  4011f0 <_ZSt19__throw_logic_errorPKc@plt>
  401726:	66 2e 0f 1f 84 00 00 	nopw   %cs:0x0(%rax,%rax,1)
  40172d:	00 00 00 
  401730:	48 89 d3             	mov    %rdx,%rbx
  401733:	4c 29 eb             	sub    %r13,%rbx
  401736:	48 83 fb 0f          	cmp    $0xf,%rbx
  40173a:	48 89 5d d0          	mov    %rbx,-0x30(%rbp)
  40173e:	77 40                	ja     401780 <_ZNSt7__cxx1112basic_stringIcSt11char_traitsIcESaIcEE12_M_constructIPKcEEvT_S8_St20forward_iterator_tag.isra.31+0x90>
  401740:	49 8b 14 24          	mov    (%r12),%rdx
  401744:	48 83 fb 01          	cmp    $0x1,%rbx
  401748:	48 89 d7             	mov    %rdx,%rdi
  40174b:	74 63                	je     4017b0 <_ZNSt7__cxx1112basic_stringIcSt11char_traitsIcESaIcEE12_M_constructIPKcEEvT_S8_St20forward_iterator_tag.isra.31+0xc0>
  40174d:	48 85 db             	test   %rbx,%rbx
  401750:	75 4c                	jne    40179e <_ZNSt7__cxx1112basic_stringIcSt11char_traitsIcESaIcEE12_M_constructIPKcEEvT_S8_St20forward_iterator_tag.isra.31+0xae>
  401752:	48 8b 45 d0          	mov    -0x30(%rbp),%rax
  401756:	49 89 44 24 08       	mov    %rax,0x8(%r12)
  40175b:	c6 04 02 00          	movb   $0x0,(%rdx,%rax,1)
  40175f:	48 8b 45 d8          	mov    -0x28(%rbp),%rax
  401763:	64 48 33 04 25 28 00 	xor    %fs:0x28,%rax
  40176a:	00 00 
  40176c:	75 4f                	jne    4017bd <_ZNSt7__cxx1112basic_stringIcSt11char_traitsIcESaIcEE12_M_constructIPKcEEvT_S8_St20forward_iterator_tag.isra.31+0xcd>
  40176e:	48 83 c4 18          	add    $0x18,%rsp
  401772:	5b                   	pop    %rbx
  401773:	41 5c                	pop    %r12
  401775:	41 5d                	pop    %r13
  401777:	5d                   	pop    %rbp
  401778:	c3                   	retq   
  401779:	0f 1f 80 00 00 00 00 	nopl   0x0(%rax)
  401780:	48 8d 75 d0          	lea    -0x30(%rbp),%rsi
  401784:	4c 89 e7             	mov    %r12,%rdi
  401787:	31 d2                	xor    %edx,%edx
  401789:	e8 f2 fb ff ff       	callq  401380 <_ZNSt7__cxx1112basic_stringIcSt11char_traitsIcESaIcEE9_M_createERmm@plt>
  40178e:	48 89 c7             	mov    %rax,%rdi
  401791:	49 89 04 24          	mov    %rax,(%r12)
  401795:	48 8b 45 d0          	mov    -0x30(%rbp),%rax
  401799:	49 89 44 24 10       	mov    %rax,0x10(%r12)
  40179e:	48 89 da             	mov    %rbx,%rdx
  4017a1:	4c 89 ee             	mov    %r13,%rsi
  4017a4:	e8 77 fa ff ff       	callq  401220 <memcpy@plt>
  4017a9:	49 8b 14 24          	mov    (%r12),%rdx
  4017ad:	eb a3                	jmp    401752 <_ZNSt7__cxx1112basic_stringIcSt11char_traitsIcESaIcEE12_M_constructIPKcEEvT_S8_St20forward_iterator_tag.isra.31+0x62>
  4017af:	90                   	nop
  4017b0:	41 0f b6 45 00       	movzbl 0x0(%r13),%eax
  4017b5:	88 02                	mov    %al,(%rdx)
  4017b7:	49 8b 14 24          	mov    (%r12),%rdx
  4017bb:	eb 95                	jmp    401752 <_ZNSt7__cxx1112basic_stringIcSt11char_traitsIcESaIcEE12_M_constructIPKcEEvT_S8_St20forward_iterator_tag.isra.31+0x62>
  4017bd:	e8 ce fa ff ff       	callq  401290 <__stack_chk_fail@plt>
  4017c2:	0f 1f 40 00          	nopl   0x0(%rax)
  4017c6:	66 2e 0f 1f 84 00 00 	nopw   %cs:0x0(%rax,%rax,1)
  4017cd:	00 00 00 

00000000004017d0 <_Z21handle_new_connectionP11uv_stream_si>:
  4017d0:	85 f6                	test   %esi,%esi
  4017d2:	78 5c                	js     401830 <_Z21handle_new_connectionP11uv_stream_si+0x60>
  4017d4:	55                   	push   %rbp
  4017d5:	48 89 e5             	mov    %rsp,%rbp
  4017d8:	41 54                	push   %r12
  4017da:	53                   	push   %rbx
  4017db:	48 89 fb             	mov    %rdi,%rbx
  4017de:	48 8b 3d d3 29 20 00 	mov    0x2029d3(%rip),%rdi        # 6041b8 <mem_pool>
  4017e5:	e8 46 11 00 00       	callq  402930 <_Z9ud_mallocP10mem_pool_s>
  4017ea:	48 8b 3d 3f 2a 20 00 	mov    0x202a3f(%rip),%rdi        # 604230 <loop>
  4017f1:	49 89 c4             	mov    %rax,%r12
  4017f4:	48 89 c6             	mov    %rax,%rsi
  4017f7:	e8 84 fa ff ff       	callq  401280 <uv_tcp_init@plt>
  4017fc:	4c 89 e6             	mov    %r12,%rsi
  4017ff:	48 89 df             	mov    %rbx,%rdi
  401802:	e8 09 fa ff ff       	callq  401210 <uv_accept@plt>
  401807:	85 c0                	test   %eax,%eax
  401809:	74 05                	je     401810 <_Z21handle_new_connectionP11uv_stream_si+0x40>
  40180b:	5b                   	pop    %rbx
  40180c:	41 5c                	pop    %r12
  40180e:	5d                   	pop    %rbp
  40180f:	c3                   	retq   
  401810:	bf f7 2f 40 00       	mov    $0x402ff7,%edi
  401815:	e8 f6 fa ff ff       	callq  401310 <puts@plt>
  40181a:	5b                   	pop    %rbx
  40181b:	4c 89 e7             	mov    %r12,%rdi
  40181e:	ba a0 15 40 00       	mov    $0x4015a0,%edx
  401823:	be 70 15 40 00       	mov    $0x401570,%esi
  401828:	41 5c                	pop    %r12
  40182a:	5d                   	pop    %rbp
  40182b:	e9 b0 fa ff ff       	jmpq   4012e0 <uv_read_start@plt>
  401830:	bf e2 2f 40 00       	mov    $0x402fe2,%edi
  401835:	e9 d6 fa ff ff       	jmpq   401310 <puts@plt>
  40183a:	66 0f 1f 44 00 00    	nopw   0x0(%rax,%rax,1)

0000000000401840 <_Z16handle_shut_downP13uv_shutdown_si>:
  401840:	f3 c3                	repz retq 
  401842:	0f 1f 40 00          	nopl   0x0(%rax)
  401846:	66 2e 0f 1f 84 00 00 	nopw   %cs:0x0(%rax,%rax,1)
  40184d:	00 00 00 

0000000000401850 <_Z16on_message_beginP11http_parser>:
  401850:	31 c0                	xor    %eax,%eax
  401852:	c3                   	retq   
  401853:	0f 1f 00             	nopl   (%rax)
  401856:	66 2e 0f 1f 84 00 00 	nopw   %cs:0x0(%rax,%rax,1)
  40185d:	00 00 00 

0000000000401860 <_Z6on_urlP11http_parserPKcm>:
  401860:	55                   	push   %rbp
  401861:	b9 80 00 00 00       	mov    $0x80,%ecx
  401866:	48 89 e5             	mov    %rsp,%rbp
  401869:	53                   	push   %rbx
  40186a:	48 81 ec 38 04 00 00 	sub    $0x438,%rsp
  401871:	48 8b 5f 18          	mov    0x18(%rdi),%rbx
  401875:	48 8d bd e0 fb ff ff 	lea    -0x420(%rbp),%rdi
  40187c:	64 48 8b 04 25 28 00 	mov    %fs:0x28,%rax
  401883:	00 00 
  401885:	48 89 45 e8          	mov    %rax,-0x18(%rbp)
  401889:	31 c0                	xor    %eax,%eax
  40188b:	f3 48 ab             	rep stos %rax,%es:(%rdi)
  40188e:	48 8d bd e0 fb ff ff 	lea    -0x420(%rbp),%rdi
  401895:	b9 00 04 00 00       	mov    $0x400,%ecx
  40189a:	e8 b1 fa ff ff       	callq  401350 <__memcpy_chk@plt>
  40189f:	48 8d 85 c0 fb ff ff 	lea    -0x440(%rbp),%rax
  4018a6:	48 8d 95 e0 fb ff ff 	lea    -0x420(%rbp),%rdx
  4018ad:	48 83 c0 10          	add    $0x10,%rax
  4018b1:	48 89 85 c0 fb ff ff 	mov    %rax,-0x440(%rbp)
  4018b8:	8b 0a                	mov    (%rdx),%ecx
  4018ba:	48 83 c2 04          	add    $0x4,%rdx
  4018be:	8d 81 ff fe fe fe    	lea    -0x1010101(%rcx),%eax
  4018c4:	f7 d1                	not    %ecx
  4018c6:	21 c8                	and    %ecx,%eax
  4018c8:	25 80 80 80 80       	and    $0x80808080,%eax
  4018cd:	74 e9                	je     4018b8 <_Z6on_urlP11http_parserPKcm+0x58>
  4018cf:	89 c1                	mov    %eax,%ecx
  4018d1:	48 8d bd c0 fb ff ff 	lea    -0x440(%rbp),%rdi
  4018d8:	c1 e9 10             	shr    $0x10,%ecx
  4018db:	a9 80 80 00 00       	test   $0x8080,%eax
  4018e0:	0f 44 c1             	cmove  %ecx,%eax
  4018e3:	48 8d 4a 02          	lea    0x2(%rdx),%rcx
  4018e7:	89 c6                	mov    %eax,%esi
  4018e9:	48 0f 44 d1          	cmove  %rcx,%rdx
  4018ed:	40 00 c6             	add    %al,%sil
  4018f0:	48 8d b5 e0 fb ff ff 	lea    -0x420(%rbp),%rsi
  4018f7:	48 83 da 03          	sbb    $0x3,%rdx
  4018fb:	e8 f0 fd ff ff       	callq  4016f0 <_ZNSt7__cxx1112basic_stringIcSt11char_traitsIcESaIcEE12_M_constructIPKcEEvT_S8_St20forward_iterator_tag.isra.31>
  401900:	48 8d 7b 28          	lea    0x28(%rbx),%rdi
  401904:	48 8d b5 c0 fb ff ff 	lea    -0x440(%rbp),%rsi
  40190b:	e8 a0 f8 ff ff       	callq  4011b0 <_ZNSt7__cxx1112basic_stringIcSt11char_traitsIcESaIcEE9_M_assignERKS4_@plt>
  401910:	48 8b bd c0 fb ff ff 	mov    -0x440(%rbp),%rdi
  401917:	48 8d 85 c0 fb ff ff 	lea    -0x440(%rbp),%rax
  40191e:	48 83 c0 10          	add    $0x10,%rax
  401922:	48 39 c7             	cmp    %rax,%rdi
  401925:	74 05                	je     40192c <_Z6on_urlP11http_parserPKcm+0xcc>
  401927:	e8 24 f9 ff ff       	callq  401250 <_ZdlPv@plt>
  40192c:	31 c0                	xor    %eax,%eax
  40192e:	48 8b 5d e8          	mov    -0x18(%rbp),%rbx
  401932:	64 48 33 1c 25 28 00 	xor    %fs:0x28,%rbx
  401939:	00 00 
  40193b:	75 0a                	jne    401947 <_Z6on_urlP11http_parserPKcm+0xe7>
  40193d:	48 81 c4 38 04 00 00 	add    $0x438,%rsp
  401944:	5b                   	pop    %rbx
  401945:	5d                   	pop    %rbp
  401946:	c3                   	retq   
  401947:	e8 44 f9 ff ff       	callq  401290 <__stack_chk_fail@plt>
  40194c:	48 89 c3             	mov    %rax,%rbx
  40194f:	48 8d 85 c0 fb ff ff 	lea    -0x440(%rbp),%rax
  401956:	48 8b bd c0 fb ff ff 	mov    -0x440(%rbp),%rdi
  40195d:	48 8d 50 10          	lea    0x10(%rax),%rdx
  401961:	48 39 d7             	cmp    %rdx,%rdi
  401964:	74 05                	je     40196b <_Z6on_urlP11http_parserPKcm+0x10b>
  401966:	e8 e5 f8 ff ff       	callq  401250 <_ZdlPv@plt>
  40196b:	48 89 df             	mov    %rbx,%rdi
  40196e:	e8 fd f9 ff ff       	callq  401370 <_Unwind_Resume@plt>
  401973:	0f 1f 00             	nopl   (%rax)
  401976:	66 2e 0f 1f 84 00 00 	nopw   %cs:0x0(%rax,%rax,1)
  40197d:	00 00 00 

0000000000401980 <_Z9on_statusP11http_parserPKcm>:
  401980:	31 c0                	xor    %eax,%eax
  401982:	c3                   	retq   
  401983:	0f 1f 00             	nopl   (%rax)
  401986:	66 2e 0f 1f 84 00 00 	nopw   %cs:0x0(%rax,%rax,1)
  40198d:	00 00 00 

0000000000401990 <_Z15on_header_fieldP11http_parserPKcm>:
  401990:	55                   	push   %rbp
  401991:	b9 08 00 00 00       	mov    $0x8,%ecx
  401996:	48 89 e5             	mov    %rsp,%rbp
  401999:	53                   	push   %rbx
  40199a:	48 89 fb             	mov    %rdi,%rbx
  40199d:	48 8d 7d a0          	lea    -0x60(%rbp),%rdi
  4019a1:	4c 8d 45 a0          	lea    -0x60(%rbp),%r8
  4019a5:	48 83 ec 58          	sub    $0x58,%rsp
  4019a9:	64 48 8b 04 25 28 00 	mov    %fs:0x28,%rax
  4019b0:	00 00 
  4019b2:	48 89 45 e8          	mov    %rax,-0x18(%rbp)
  4019b6:	31 c0                	xor    %eax,%eax
  4019b8:	48 83 fa 40          	cmp    $0x40,%rdx
  4019bc:	f3 48 ab             	rep stos %rax,%es:(%rdi)
  4019bf:	b8 40 00 00 00       	mov    $0x40,%eax
  4019c4:	4c 89 c7             	mov    %r8,%rdi
  4019c7:	b9 40 00 00 00       	mov    $0x40,%ecx
  4019cc:	48 0f 47 d0          	cmova  %rax,%rdx
  4019d0:	e8 7b f9 ff ff       	callq  401350 <__memcpy_chk@plt>
  4019d5:	49 89 c0             	mov    %rax,%r8
  4019d8:	48 89 c2             	mov    %rax,%rdx
  4019db:	8b 0a                	mov    (%rdx),%ecx
  4019dd:	48 83 c2 04          	add    $0x4,%rdx
  4019e1:	8d 81 ff fe fe fe    	lea    -0x1010101(%rcx),%eax
  4019e7:	f7 d1                	not    %ecx
  4019e9:	21 c8                	and    %ecx,%eax
  4019eb:	25 80 80 80 80       	and    $0x80808080,%eax
  4019f0:	74 e9                	je     4019db <_Z15on_header_fieldP11http_parserPKcm+0x4b>
  4019f2:	89 c1                	mov    %eax,%ecx
  4019f4:	48 8b 7b 18          	mov    0x18(%rbx),%rdi
  4019f8:	c1 e9 10             	shr    $0x10,%ecx
  4019fb:	a9 80 80 00 00       	test   $0x8080,%eax
  401a00:	0f 44 c1             	cmove  %ecx,%eax
  401a03:	48 8d 4a 02          	lea    0x2(%rdx),%rcx
  401a07:	89 c6                	mov    %eax,%esi
  401a09:	48 0f 44 d1          	cmove  %rcx,%rdx
  401a0d:	40 00 c6             	add    %al,%sil
  401a10:	4c 89 c6             	mov    %r8,%rsi
  401a13:	48 83 da 03          	sbb    $0x3,%rdx
  401a17:	48 83 c7 48          	add    $0x48,%rdi
  401a1b:	4c 29 c2             	sub    %r8,%rdx
  401a1e:	e8 fd f7 ff ff       	callq  401220 <memcpy@plt>
  401a23:	31 c0                	xor    %eax,%eax
  401a25:	48 8b 5d e8          	mov    -0x18(%rbp),%rbx
  401a29:	64 48 33 1c 25 28 00 	xor    %fs:0x28,%rbx
  401a30:	00 00 
  401a32:	75 07                	jne    401a3b <_Z15on_header_fieldP11http_parserPKcm+0xab>
  401a34:	48 83 c4 58          	add    $0x58,%rsp
  401a38:	5b                   	pop    %rbx
  401a39:	5d                   	pop    %rbp
  401a3a:	c3                   	retq   
  401a3b:	e8 50 f8 ff ff       	callq  401290 <__stack_chk_fail@plt>

0000000000401a40 <_Z19on_headers_completeP11http_parser>:
  401a40:	31 c0                	xor    %eax,%eax
  401a42:	c3                   	retq   
  401a43:	0f 1f 00             	nopl   (%rax)
  401a46:	66 2e 0f 1f 84 00 00 	nopw   %cs:0x0(%rax,%rax,1)
  401a4d:	00 00 00 

0000000000401a50 <_Z7on_bodyP11http_parserPKcm>:
  401a50:	31 c0                	xor    %eax,%eax
  401a52:	c3                   	retq   
  401a53:	0f 1f 00             	nopl   (%rax)
  401a56:	66 2e 0f 1f 84 00 00 	nopw   %cs:0x0(%rax,%rax,1)
  401a5d:	00 00 00 

0000000000401a60 <_Z11response_okPKc>:
  401a60:	55                   	push   %rbp
  401a61:	48 89 e5             	mov    %rsp,%rbp
  401a64:	41 55                	push   %r13
  401a66:	41 54                	push   %r12
  401a68:	53                   	push   %rbx
  401a69:	49 89 fc             	mov    %rdi,%r12
  401a6c:	48 83 ec 08          	sub    $0x8,%rsp
  401a70:	e8 1b f7 ff ff       	callq  401190 <strlen@plt>
  401a75:	48 8b 3d 3c 27 20 00 	mov    0x20273c(%rip),%rdi        # 6041b8 <mem_pool>
  401a7c:	49 89 c5             	mov    %rax,%r13
  401a7f:	e8 fc 0e 00 00       	callq  402980 <_Z15ud_malloc_largeP10mem_pool_s>
  401a84:	ba 00 00 01 00       	mov    $0x10000,%edx
  401a89:	48 89 c3             	mov    %rax,%rbx
  401a8c:	31 f6                	xor    %esi,%esi
  401a8e:	48 89 c7             	mov    %rax,%rdi
  401a91:	e8 2a f7 ff ff       	callq  4011c0 <memset@plt>
  401a96:	4d 89 e1             	mov    %r12,%r9
  401a99:	45 89 e8             	mov    %r13d,%r8d
  401a9c:	48 89 df             	mov    %rbx,%rdi
  401a9f:	b9 c0 30 40 00       	mov    $0x4030c0,%ecx
  401aa4:	48 c7 c2 ff ff ff ff 	mov    $0xffffffffffffffff,%rdx
  401aab:	be 01 00 00 00       	mov    $0x1,%esi
  401ab0:	31 c0                	xor    %eax,%eax
  401ab2:	e8 19 f7 ff ff       	callq  4011d0 <__sprintf_chk@plt>
  401ab7:	48 83 c4 08          	add    $0x8,%rsp
  401abb:	48 89 d8             	mov    %rbx,%rax
  401abe:	5b                   	pop    %rbx
  401abf:	41 5c                	pop    %r12
  401ac1:	41 5d                	pop    %r13
  401ac3:	5d                   	pop    %rbp
  401ac4:	c3                   	retq   
  401ac5:	90                   	nop
  401ac6:	66 2e 0f 1f 84 00 00 	nopw   %cs:0x0(%rax,%rax,1)
  401acd:	00 00 00 

0000000000401ad0 <_Z15on_header_valueP11http_parserPKcm>:
  401ad0:	55                   	push   %rbp
  401ad1:	b9 40 00 00 00       	mov    $0x40,%ecx
  401ad6:	48 89 e5             	mov    %rsp,%rbp
  401ad9:	41 54                	push   %r12
  401adb:	53                   	push   %rbx
  401adc:	48 89 fb             	mov    %rdi,%rbx
  401adf:	48 8d bd e0 fd ff ff 	lea    -0x220(%rbp),%rdi
  401ae6:	48 81 ec d0 02 00 00 	sub    $0x2d0,%rsp
  401aed:	64 48 8b 04 25 28 00 	mov    %fs:0x28,%rax
  401af4:	00 00 
  401af6:	48 89 45 e8          	mov    %rax,-0x18(%rbp)
  401afa:	31 c0                	xor    %eax,%eax
  401afc:	48 81 fa 00 02 00 00 	cmp    $0x200,%rdx
  401b03:	f3 48 ab             	rep stos %rax,%es:(%rdi)
  401b06:	b8 00 02 00 00       	mov    $0x200,%eax
  401b0b:	48 8d bd e0 fd ff ff 	lea    -0x220(%rbp),%rdi
  401b12:	b9 00 02 00 00       	mov    $0x200,%ecx
  401b17:	48 0f 47 d0          	cmova  %rax,%rdx
  401b1b:	e8 30 f8 ff ff       	callq  401350 <__memcpy_chk@plt>
  401b20:	48 8d 85 40 fd ff ff 	lea    -0x2c0(%rbp),%rax
  401b27:	48 8b 5b 18          	mov    0x18(%rbx),%rbx
  401b2b:	48 8d 95 e0 fd ff ff 	lea    -0x220(%rbp),%rdx
  401b32:	48 83 c0 10          	add    $0x10,%rax
  401b36:	48 89 85 40 fd ff ff 	mov    %rax,-0x2c0(%rbp)
  401b3d:	8b 0a                	mov    (%rdx),%ecx
  401b3f:	48 83 c2 04          	add    $0x4,%rdx
  401b43:	8d 81 ff fe fe fe    	lea    -0x1010101(%rcx),%eax
  401b49:	f7 d1                	not    %ecx
  401b4b:	21 c8                	and    %ecx,%eax
  401b4d:	25 80 80 80 80       	and    $0x80808080,%eax
  401b52:	74 e9                	je     401b3d <_Z15on_header_valueP11http_parserPKcm+0x6d>
  401b54:	89 c1                	mov    %eax,%ecx
  401b56:	48 8d b5 e0 fd ff ff 	lea    -0x220(%rbp),%rsi
  401b5d:	48 8d bd 40 fd ff ff 	lea    -0x2c0(%rbp),%rdi
  401b64:	c1 e9 10             	shr    $0x10,%ecx
  401b67:	a9 80 80 00 00       	test   $0x8080,%eax
  401b6c:	49 89 dc             	mov    %rbx,%r12
  401b6f:	0f 44 c1             	cmove  %ecx,%eax
  401b72:	48 8d 4a 02          	lea    0x2(%rdx),%rcx
  401b76:	48 0f 44 d1          	cmove  %rcx,%rdx
  401b7a:	89 c1                	mov    %eax,%ecx
  401b7c:	00 c1                	add    %al,%cl
  401b7e:	48 83 da 03          	sbb    $0x3,%rdx
  401b82:	e8 69 fb ff ff       	callq  4016f0 <_ZNSt7__cxx1112basic_stringIcSt11char_traitsIcESaIcEE12_M_constructIPKcEEvT_S8_St20forward_iterator_tag.isra.31>
  401b87:	48 8d 85 20 fd ff ff 	lea    -0x2e0(%rbp),%rax
  401b8e:	48 8d 53 47          	lea    0x47(%rbx),%rdx
  401b92:	48 83 c0 10          	add    $0x10,%rax
  401b96:	49 83 c4 48          	add    $0x48,%r12
  401b9a:	48 89 85 20 fd ff ff 	mov    %rax,-0x2e0(%rbp)
  401ba1:	74 0c                	je     401baf <_Z15on_header_valueP11http_parserPKcm+0xdf>
  401ba3:	4c 89 e7             	mov    %r12,%rdi
  401ba6:	e8 e5 f5 ff ff       	callq  401190 <strlen@plt>
  401bab:	49 8d 14 04          	lea    (%r12,%rax,1),%rdx
  401baf:	48 8d bd 20 fd ff ff 	lea    -0x2e0(%rbp),%rdi
  401bb6:	4c 89 e6             	mov    %r12,%rsi
  401bb9:	e8 32 fb ff ff       	callq  4016f0 <_ZNSt7__cxx1112basic_stringIcSt11char_traitsIcESaIcEE12_M_constructIPKcEEvT_S8_St20forward_iterator_tag.isra.31>
  401bbe:	48 8b b5 20 fd ff ff 	mov    -0x2e0(%rbp),%rsi
  401bc5:	48 8d 85 60 fd ff ff 	lea    -0x2a0(%rbp),%rax
  401bcc:	48 8d bd 60 fd ff ff 	lea    -0x2a0(%rbp),%rdi
  401bd3:	48 83 c0 10          	add    $0x10,%rax
  401bd7:	48 89 f2             	mov    %rsi,%rdx
  401bda:	48 03 95 28 fd ff ff 	add    -0x2d8(%rbp),%rdx
  401be1:	48 89 85 60 fd ff ff 	mov    %rax,-0x2a0(%rbp)
  401be8:	e8 03 fb ff ff       	callq  4016f0 <_ZNSt7__cxx1112basic_stringIcSt11char_traitsIcESaIcEE12_M_constructIPKcEEvT_S8_St20forward_iterator_tag.isra.31>
  401bed:	48 8d 85 60 fd ff ff 	lea    -0x2a0(%rbp),%rax
  401bf4:	48 8b b5 40 fd ff ff 	mov    -0x2c0(%rbp),%rsi
  401bfb:	48 83 c0 30          	add    $0x30,%rax
  401bff:	48 89 85 80 fd ff ff 	mov    %rax,-0x280(%rbp)
  401c06:	48 89 f2             	mov    %rsi,%rdx
  401c09:	48 8d 85 60 fd ff ff 	lea    -0x2a0(%rbp),%rax
  401c10:	48 03 95 48 fd ff ff 	add    -0x2b8(%rbp),%rdx
  401c17:	48 8d 78 20          	lea    0x20(%rax),%rdi
  401c1b:	e8 d0 fa ff ff       	callq  4016f0 <_ZNSt7__cxx1112basic_stringIcSt11char_traitsIcESaIcEE12_M_constructIPKcEEvT_S8_St20forward_iterator_tag.isra.31>
  401c20:	48 8b b5 60 fd ff ff 	mov    -0x2a0(%rbp),%rsi
  401c27:	48 8d 85 a0 fd ff ff 	lea    -0x260(%rbp),%rax
  401c2e:	48 8d bd a0 fd ff ff 	lea    -0x260(%rbp),%rdi
  401c35:	48 83 c0 10          	add    $0x10,%rax
  401c39:	48 89 f2             	mov    %rsi,%rdx
  401c3c:	48 03 95 68 fd ff ff 	add    -0x298(%rbp),%rdx
  401c43:	48 89 85 a0 fd ff ff 	mov    %rax,-0x260(%rbp)
  401c4a:	e8 a1 fa ff ff       	callq  4016f0 <_ZNSt7__cxx1112basic_stringIcSt11char_traitsIcESaIcEE12_M_constructIPKcEEvT_S8_St20forward_iterator_tag.isra.31>
  401c4f:	48 8d 85 a0 fd ff ff 	lea    -0x260(%rbp),%rax
  401c56:	48 8b b5 80 fd ff ff 	mov    -0x280(%rbp),%rsi
  401c5d:	48 83 c0 30          	add    $0x30,%rax
  401c61:	48 89 85 c0 fd ff ff 	mov    %rax,-0x240(%rbp)
  401c68:	48 89 f2             	mov    %rsi,%rdx
  401c6b:	48 8d 85 a0 fd ff ff 	lea    -0x260(%rbp),%rax
  401c72:	48 03 95 88 fd ff ff 	add    -0x278(%rbp),%rdx
  401c79:	48 8d 78 20          	lea    0x20(%rax),%rdi
  401c7d:	e8 6e fa ff ff       	callq  4016f0 <_ZNSt7__cxx1112basic_stringIcSt11char_traitsIcESaIcEE12_M_constructIPKcEEvT_S8_St20forward_iterator_tag.isra.31>
  401c82:	48 8d bb 88 00 00 00 	lea    0x88(%rbx),%rdi
  401c89:	48 8d b5 a0 fd ff ff 	lea    -0x260(%rbp),%rsi
  401c90:	e8 4b 05 00 00       	callq  4021e0 <_ZNSt8_Rb_treeINSt7__cxx1112basic_stringIcSt11char_traitsIcESaIcEEESt4pairIKS5_S5_ESt10_Select1stIS8_ESt4lessIS5_ESaIS8_EE16_M_insert_uniqueERKS8_>
  401c95:	48 8b bd c0 fd ff ff 	mov    -0x240(%rbp),%rdi
  401c9c:	48 8d 85 a0 fd ff ff 	lea    -0x260(%rbp),%rax
  401ca3:	48 83 c0 30          	add    $0x30,%rax
  401ca7:	48 39 c7             	cmp    %rax,%rdi
  401caa:	74 05                	je     401cb1 <_Z15on_header_valueP11http_parserPKcm+0x1e1>
  401cac:	e8 9f f5 ff ff       	callq  401250 <_ZdlPv@plt>
  401cb1:	48 8b bd a0 fd ff ff 	mov    -0x260(%rbp),%rdi
  401cb8:	48 8d 85 a0 fd ff ff 	lea    -0x260(%rbp),%rax
  401cbf:	48 83 c0 10          	add    $0x10,%rax
  401cc3:	48 39 c7             	cmp    %rax,%rdi
  401cc6:	74 05                	je     401ccd <_Z15on_header_valueP11http_parserPKcm+0x1fd>
  401cc8:	e8 83 f5 ff ff       	callq  401250 <_ZdlPv@plt>
  401ccd:	48 8b bd 80 fd ff ff 	mov    -0x280(%rbp),%rdi
  401cd4:	48 8d 85 60 fd ff ff 	lea    -0x2a0(%rbp),%rax
  401cdb:	48 83 c0 30          	add    $0x30,%rax
  401cdf:	48 39 c7             	cmp    %rax,%rdi
  401ce2:	74 05                	je     401ce9 <_Z15on_header_valueP11http_parserPKcm+0x219>
  401ce4:	e8 67 f5 ff ff       	callq  401250 <_ZdlPv@plt>
  401ce9:	48 8b bd 60 fd ff ff 	mov    -0x2a0(%rbp),%rdi
  401cf0:	48 8d 85 60 fd ff ff 	lea    -0x2a0(%rbp),%rax
  401cf7:	48 83 c0 10          	add    $0x10,%rax
  401cfb:	48 39 c7             	cmp    %rax,%rdi
  401cfe:	74 05                	je     401d05 <_Z15on_header_valueP11http_parserPKcm+0x235>
  401d00:	e8 4b f5 ff ff       	callq  401250 <_ZdlPv@plt>
  401d05:	48 8b bd 20 fd ff ff 	mov    -0x2e0(%rbp),%rdi
  401d0c:	48 8d 85 20 fd ff ff 	lea    -0x2e0(%rbp),%rax
  401d13:	48 83 c0 10          	add    $0x10,%rax
  401d17:	48 39 c7             	cmp    %rax,%rdi
  401d1a:	74 05                	je     401d21 <_Z15on_header_valueP11http_parserPKcm+0x251>
  401d1c:	e8 2f f5 ff ff       	callq  401250 <_ZdlPv@plt>
  401d21:	48 8b bd 40 fd ff ff 	mov    -0x2c0(%rbp),%rdi
  401d28:	48 8d 85 40 fd ff ff 	lea    -0x2c0(%rbp),%rax
  401d2f:	48 83 c0 10          	add    $0x10,%rax
  401d33:	48 39 c7             	cmp    %rax,%rdi
  401d36:	74 05                	je     401d3d <_Z15on_header_valueP11http_parserPKcm+0x26d>
  401d38:	e8 13 f5 ff ff       	callq  401250 <_ZdlPv@plt>
  401d3d:	31 c0                	xor    %eax,%eax
  401d3f:	48 8b 5d e8          	mov    -0x18(%rbp),%rbx
  401d43:	64 48 33 1c 25 28 00 	xor    %fs:0x28,%rbx
  401d4a:	00 00 
  401d4c:	75 0c                	jne    401d5a <_Z15on_header_valueP11http_parserPKcm+0x28a>
  401d4e:	48 81 c4 d0 02 00 00 	add    $0x2d0,%rsp
  401d55:	5b                   	pop    %rbx
  401d56:	41 5c                	pop    %r12
  401d58:	5d                   	pop    %rbp
  401d59:	c3                   	retq   
  401d5a:	e8 31 f5 ff ff       	callq  401290 <__stack_chk_fail@plt>
  401d5f:	48 89 c3             	mov    %rax,%rbx
  401d62:	48 8b bd c0 fd ff ff 	mov    -0x240(%rbp),%rdi
  401d69:	48 8d 85 a0 fd ff ff 	lea    -0x260(%rbp),%rax
  401d70:	48 83 c0 30          	add    $0x30,%rax
  401d74:	48 39 c7             	cmp    %rax,%rdi
  401d77:	74 05                	je     401d7e <_Z15on_header_valueP11http_parserPKcm+0x2ae>
  401d79:	e8 d2 f4 ff ff       	callq  401250 <_ZdlPv@plt>
  401d7e:	48 8b bd a0 fd ff ff 	mov    -0x260(%rbp),%rdi
  401d85:	48 8d 85 a0 fd ff ff 	lea    -0x260(%rbp),%rax
  401d8c:	48 83 c0 10          	add    $0x10,%rax
  401d90:	48 39 c7             	cmp    %rax,%rdi
  401d93:	74 05                	je     401d9a <_Z15on_header_valueP11http_parserPKcm+0x2ca>
  401d95:	e8 b6 f4 ff ff       	callq  401250 <_ZdlPv@plt>
  401d9a:	48 8b bd 80 fd ff ff 	mov    -0x280(%rbp),%rdi
  401da1:	48 8d 85 60 fd ff ff 	lea    -0x2a0(%rbp),%rax
  401da8:	48 83 c0 30          	add    $0x30,%rax
  401dac:	48 39 c7             	cmp    %rax,%rdi
  401daf:	74 05                	je     401db6 <_Z15on_header_valueP11http_parserPKcm+0x2e6>
  401db1:	e8 9a f4 ff ff       	callq  401250 <_ZdlPv@plt>
  401db6:	48 8d 85 60 fd ff ff 	lea    -0x2a0(%rbp),%rax
  401dbd:	48 8b bd 60 fd ff ff 	mov    -0x2a0(%rbp),%rdi
  401dc4:	48 8d 50 10          	lea    0x10(%rax),%rdx
  401dc8:	48 39 d7             	cmp    %rdx,%rdi
  401dcb:	74 05                	je     401dd2 <_Z15on_header_valueP11http_parserPKcm+0x302>
  401dcd:	e8 7e f4 ff ff       	callq  401250 <_ZdlPv@plt>
  401dd2:	48 8d 85 20 fd ff ff 	lea    -0x2e0(%rbp),%rax
  401dd9:	48 8b bd 20 fd ff ff 	mov    -0x2e0(%rbp),%rdi
  401de0:	48 8d 50 10          	lea    0x10(%rax),%rdx
  401de4:	48 39 d7             	cmp    %rdx,%rdi
  401de7:	74 05                	je     401dee <_Z15on_header_valueP11http_parserPKcm+0x31e>
  401de9:	e8 62 f4 ff ff       	callq  401250 <_ZdlPv@plt>
  401dee:	48 8d 85 40 fd ff ff 	lea    -0x2c0(%rbp),%rax
  401df5:	48 8b bd 40 fd ff ff 	mov    -0x2c0(%rbp),%rdi
  401dfc:	48 8d 50 10          	lea    0x10(%rax),%rdx
  401e00:	48 39 d7             	cmp    %rdx,%rdi
  401e03:	74 05                	je     401e0a <_Z15on_header_valueP11http_parserPKcm+0x33a>
  401e05:	e8 46 f4 ff ff       	callq  401250 <_ZdlPv@plt>
  401e0a:	48 89 df             	mov    %rbx,%rdi
  401e0d:	e8 5e f5 ff ff       	callq  401370 <_Unwind_Resume@plt>
  401e12:	48 89 c3             	mov    %rax,%rbx
  401e15:	e9 64 ff ff ff       	jmpq   401d7e <_Z15on_header_valueP11http_parserPKcm+0x2ae>
  401e1a:	48 89 c3             	mov    %rax,%rbx
  401e1d:	e9 78 ff ff ff       	jmpq   401d9a <_Z15on_header_valueP11http_parserPKcm+0x2ca>
  401e22:	48 89 c3             	mov    %rax,%rbx
  401e25:	48 8b bd 60 fd ff ff 	mov    -0x2a0(%rbp),%rdi
  401e2c:	48 8d 85 60 fd ff ff 	lea    -0x2a0(%rbp),%rax
  401e33:	48 83 c0 10          	add    $0x10,%rax
  401e37:	48 39 c7             	cmp    %rax,%rdi
  401e3a:	75 91                	jne    401dcd <_Z15on_header_valueP11http_parserPKcm+0x2fd>
  401e3c:	eb 94                	jmp    401dd2 <_Z15on_header_valueP11http_parserPKcm+0x302>
  401e3e:	48 89 c3             	mov    %rax,%rbx
  401e41:	eb 8f                	jmp    401dd2 <_Z15on_header_valueP11http_parserPKcm+0x302>
  401e43:	48 89 c3             	mov    %rax,%rbx
  401e46:	eb a6                	jmp    401dee <_Z15on_header_valueP11http_parserPKcm+0x31e>
  401e48:	0f 1f 84 00 00 00 00 	nopl   0x0(%rax,%rax,1)
  401e4f:	00 

0000000000401e50 <_Z19on_message_completeP11http_parser>:
  401e50:	55                   	push   %rbp
  401e51:	48 89 e5             	mov    %rsp,%rbp
  401e54:	41 57                	push   %r15
  401e56:	41 56                	push   %r14
  401e58:	41 55                	push   %r13
  401e5a:	41 54                	push   %r12
  401e5c:	49 89 fc             	mov    %rdi,%r12
  401e5f:	53                   	push   %rbx
  401e60:	bf 0d 30 40 00       	mov    $0x40300d,%edi
  401e65:	48 81 ec 88 20 00 00 	sub    $0x2088,%rsp
  401e6c:	64 48 8b 04 25 28 00 	mov    %fs:0x28,%rax
  401e73:	00 00 
  401e75:	48 89 45 c8          	mov    %rax,-0x38(%rbp)
  401e79:	31 c0                	xor    %eax,%eax
  401e7b:	e8 90 f4 ff ff       	callq  401310 <puts@plt>
  401e80:	49 8b 5c 24 18       	mov    0x18(%r12),%rbx
  401e85:	48 8d 85 70 df ff ff 	lea    -0x2090(%rbp),%rax
  401e8c:	c7 85 78 df ff ff 00 	movl   $0x0,-0x2088(%rbp)
  401e93:	00 00 00 
  401e96:	48 c7 85 80 df ff ff 	movq   $0x0,-0x2080(%rbp)
  401e9d:	00 00 00 00 
  401ea1:	48 c7 85 98 df ff ff 	movq   $0x0,-0x2068(%rbp)
  401ea8:	00 00 00 00 
  401eac:	48 8d 50 08          	lea    0x8(%rax),%rdx
  401eb0:	48 8b b3 98 00 00 00 	mov    0x98(%rbx),%rsi
  401eb7:	48 89 95 88 df ff ff 	mov    %rdx,-0x2078(%rbp)
  401ebe:	48 89 95 90 df ff ff 	mov    %rdx,-0x2070(%rbp)
  401ec5:	48 85 f6             	test   %rsi,%rsi
  401ec8:	74 64                	je     401f2e <_Z19on_message_completeP11http_parser+0xde>
  401eca:	48 8d 8d 60 df ff ff 	lea    -0x20a0(%rbp),%rcx
  401ed1:	48 89 c7             	mov    %rax,%rdi
  401ed4:	48 89 85 60 df ff ff 	mov    %rax,-0x20a0(%rbp)
  401edb:	e8 30 06 00 00       	callq  402510 <_ZNSt8_Rb_treeINSt7__cxx1112basic_stringIcSt11char_traitsIcESaIcEEESt4pairIKS5_S5_ESt10_Select1stIS8_ESt4lessIS5_ESaIS8_EE7_M_copyINSE_11_Alloc_nodeEEEPSt13_Rb_tree_nodeIS8_EPKSI_SJ_RT_>
  401ee0:	48 89 85 80 df ff ff 	mov    %rax,-0x2080(%rbp)
  401ee7:	48 89 c1             	mov    %rax,%rcx
  401eea:	eb 07                	jmp    401ef3 <_Z19on_message_completeP11http_parser+0xa3>
  401eec:	0f 1f 40 00          	nopl   0x0(%rax)
  401ef0:	48 89 d1             	mov    %rdx,%rcx
  401ef3:	48 8b 51 10          	mov    0x10(%rcx),%rdx
  401ef7:	48 85 d2             	test   %rdx,%rdx
  401efa:	75 f4                	jne    401ef0 <_Z19on_message_completeP11http_parser+0xa0>
  401efc:	48 89 8d 88 df ff ff 	mov    %rcx,-0x2078(%rbp)
  401f03:	eb 06                	jmp    401f0b <_Z19on_message_completeP11http_parser+0xbb>
  401f05:	0f 1f 00             	nopl   (%rax)
  401f08:	48 89 d0             	mov    %rdx,%rax
  401f0b:	48 8b 50 18          	mov    0x18(%rax),%rdx
  401f0f:	48 85 d2             	test   %rdx,%rdx
  401f12:	75 f4                	jne    401f08 <_Z19on_message_completeP11http_parser+0xb8>
  401f14:	48 89 85 90 df ff ff 	mov    %rax,-0x2070(%rbp)
  401f1b:	48 8b 83 b0 00 00 00 	mov    0xb0(%rbx),%rax
  401f22:	49 8b 5c 24 18       	mov    0x18(%r12),%rbx
  401f27:	48 89 85 98 df ff ff 	mov    %rax,-0x2068(%rbp)
  401f2e:	48 8b 3d 83 22 20 00 	mov    0x202283(%rip),%rdi        # 6041b8 <mem_pool>
  401f35:	e8 f6 09 00 00       	callq  402930 <_Z9ud_mallocP10mem_pool_s>
  401f3a:	48 8d 95 c0 df ff ff 	lea    -0x2040(%rbp),%rdx
  401f41:	49 89 c5             	mov    %rax,%r13
  401f44:	b9 00 04 00 00       	mov    $0x400,%ecx
  401f49:	48 b8 39 39 39 39 39 	movabs $0x3939393939393939,%rax
  401f50:	39 39 39 
  401f53:	48 89 d7             	mov    %rdx,%rdi
  401f56:	f3 48 ab             	rep stos %rax,%es:(%rdi)
  401f59:	48 89 d7             	mov    %rdx,%rdi
  401f5c:	e8 ff fa ff ff       	callq  401a60 <_Z11response_okPKc>
  401f61:	49 89 c4             	mov    %rax,%r12
  401f64:	48 89 c2             	mov    %rax,%rdx
  401f67:	be 1c 30 40 00       	mov    $0x40301c,%esi
  401f6c:	bf 01 00 00 00       	mov    $0x1,%edi
  401f71:	31 c0                	xor    %eax,%eax
  401f73:	e8 a8 f1 ff ff       	callq  401120 <__printf_chk@plt>
  401f78:	4c 89 e7             	mov    %r12,%rdi
  401f7b:	e8 10 f2 ff ff       	callq  401190 <strlen@plt>
  401f80:	4c 89 e7             	mov    %r12,%rdi
  401f83:	89 c6                	mov    %eax,%esi
  401f85:	e8 16 f4 ff ff       	callq  4013a0 <uv_buf_init@plt>
  401f8a:	48 89 85 60 df ff ff 	mov    %rax,-0x20a0(%rbp)
  401f91:	48 8b 03             	mov    (%rbx),%rax
  401f94:	41 b8 40 15 40 00    	mov    $0x401540,%r8d
  401f9a:	48 89 95 68 df ff ff 	mov    %rdx,-0x2098(%rbp)
  401fa1:	48 8d 95 60 df ff ff 	lea    -0x20a0(%rbp),%rdx
  401fa8:	b9 01 00 00 00       	mov    $0x1,%ecx
  401fad:	4c 89 ef             	mov    %r13,%rdi
  401fb0:	48 89 c6             	mov    %rax,%rsi
  401fb3:	48 89 85 58 df ff ff 	mov    %rax,-0x20a8(%rbp)
  401fba:	e8 c1 f1 ff ff       	callq  401180 <uv_write@plt>
  401fbf:	48 8b 3d f2 21 20 00 	mov    0x2021f2(%rip),%rdi        # 6041b8 <mem_pool>
  401fc6:	4c 89 e6             	mov    %r12,%rsi
  401fc9:	e8 f2 09 00 00       	callq  4029c0 <_Z13ud_free_largeP10mem_pool_sPv>
  401fce:	48 8d 85 a0 df ff ff 	lea    -0x2060(%rbp),%rax
  401fd5:	48 8d bd a0 df ff ff 	lea    -0x2060(%rbp),%rdi
  401fdc:	ba 2f 30 40 00       	mov    $0x40302f,%edx
  401fe1:	be 25 30 40 00       	mov    $0x403025,%esi
  401fe6:	48 83 c0 10          	add    $0x10,%rax
  401fea:	48 89 85 a0 df ff ff 	mov    %rax,-0x2060(%rbp)
  401ff1:	e8 fa f6 ff ff       	callq  4016f0 <_ZNSt7__cxx1112basic_stringIcSt11char_traitsIcESaIcEE12_M_constructIPKcEEvT_S8_St20forward_iterator_tag.isra.31>
  401ff6:	48 8b 9d 80 df ff ff 	mov    -0x2080(%rbp),%rbx
  401ffd:	48 85 db             	test   %rbx,%rbx
  402000:	0f 84 a1 01 00 00    	je     4021a7 <_Z19on_message_completeP11http_parser+0x357>
  402006:	48 8d 85 70 df ff ff 	lea    -0x2090(%rbp),%rax
  40200d:	4c 8b bd a8 df ff ff 	mov    -0x2058(%rbp),%r15
  402014:	4c 8b b5 a0 df ff ff 	mov    -0x2060(%rbp),%r14
  40201b:	4c 8d 68 08          	lea    0x8(%rax),%r13
  40201f:	eb 27                	jmp    402048 <_Z19on_message_completeP11http_parser+0x1f8>
  402021:	0f 1f 80 00 00 00 00 	nopl   0x0(%rax)
  402028:	48 8b 7b 20          	mov    0x20(%rbx),%rdi
  40202c:	4c 89 f6             	mov    %r14,%rsi
  40202f:	e8 6c f1 ff ff       	callq  4011a0 <memcmp@plt>
  402034:	85 c0                	test   %eax,%eax
  402036:	74 23                	je     40205b <_Z19on_message_completeP11http_parser+0x20b>
  402038:	85 c0                	test   %eax,%eax
  40203a:	78 44                	js     402080 <_Z19on_message_completeP11http_parser+0x230>
  40203c:	49 89 dd             	mov    %rbx,%r13
  40203f:	48 8b 5b 10          	mov    0x10(%rbx),%rbx
  402043:	48 85 db             	test   %rbx,%rbx
  402046:	74 41                	je     402089 <_Z19on_message_completeP11http_parser+0x239>
  402048:	4c 8b 63 28          	mov    0x28(%rbx),%r12
  40204c:	4c 89 fa             	mov    %r15,%rdx
  40204f:	4d 39 fc             	cmp    %r15,%r12
  402052:	49 0f 46 d4          	cmovbe %r12,%rdx
  402056:	48 85 d2             	test   %rdx,%rdx
  402059:	75 cd                	jne    402028 <_Z19on_message_completeP11http_parser+0x1d8>
  40205b:	4d 29 fc             	sub    %r15,%r12
  40205e:	49 81 fc ff ff ff 7f 	cmp    $0x7fffffff,%r12
  402065:	7f d5                	jg     40203c <_Z19on_message_completeP11http_parser+0x1ec>
  402067:	49 81 fc 00 00 00 80 	cmp    $0xffffffff80000000,%r12
  40206e:	7c 10                	jl     402080 <_Z19on_message_completeP11http_parser+0x230>
  402070:	44 89 e0             	mov    %r12d,%eax
  402073:	85 c0                	test   %eax,%eax
  402075:	79 c5                	jns    40203c <_Z19on_message_completeP11http_parser+0x1ec>
  402077:	66 0f 1f 84 00 00 00 	nopw   0x0(%rax,%rax,1)
  40207e:	00 00 
  402080:	48 8b 5b 18          	mov    0x18(%rbx),%rbx
  402084:	48 85 db             	test   %rbx,%rbx
  402087:	75 bf                	jne    402048 <_Z19on_message_completeP11http_parser+0x1f8>
  402089:	48 8d 85 70 df ff ff 	lea    -0x2090(%rbp),%rax
  402090:	48 83 c0 08          	add    $0x8,%rax
  402094:	49 39 c5             	cmp    %rax,%r13
  402097:	0f 84 cf 00 00 00    	je     40216c <_Z19on_message_completeP11http_parser+0x31c>
  40209d:	49 8b 5d 28          	mov    0x28(%r13),%rbx
  4020a1:	49 39 df             	cmp    %rbx,%r15
  4020a4:	48 89 da             	mov    %rbx,%rdx
  4020a7:	49 0f 46 d7          	cmovbe %r15,%rdx
  4020ab:	48 85 d2             	test   %rdx,%rdx
  4020ae:	0f 84 9c 00 00 00    	je     402150 <_Z19on_message_completeP11http_parser+0x300>
  4020b4:	49 8b 75 20          	mov    0x20(%r13),%rsi
  4020b8:	4c 89 f7             	mov    %r14,%rdi
  4020bb:	e8 e0 f0 ff ff       	callq  4011a0 <memcmp@plt>
  4020c0:	85 c0                	test   %eax,%eax
  4020c2:	0f 84 88 00 00 00    	je     402150 <_Z19on_message_completeP11http_parser+0x300>
  4020c8:	85 c0                	test   %eax,%eax
  4020ca:	0f 88 9c 00 00 00    	js     40216c <_Z19on_message_completeP11http_parser+0x31c>
  4020d0:	48 8d 85 a0 df ff ff 	lea    -0x2060(%rbp),%rax
  4020d7:	48 83 c0 10          	add    $0x10,%rax
  4020db:	49 39 c6             	cmp    %rax,%r14
  4020de:	74 08                	je     4020e8 <_Z19on_message_completeP11http_parser+0x298>
  4020e0:	4c 89 f7             	mov    %r14,%rdi
  4020e3:	e8 68 f1 ff ff       	callq  401250 <_ZdlPv@plt>
  4020e8:	49 8b 75 40          	mov    0x40(%r13),%rsi
  4020ec:	bf 30 30 40 00       	mov    $0x403030,%edi
  4020f1:	b9 0b 00 00 00       	mov    $0xb,%ecx
  4020f6:	f3 a6                	repz cmpsb %es:(%rdi),%ds:(%rsi)
  4020f8:	0f 84 92 00 00 00    	je     402190 <_Z19on_message_completeP11http_parser+0x340>
  4020fe:	bf 10 31 40 00       	mov    $0x403110,%edi
  402103:	e8 08 f2 ff ff       	callq  401310 <puts@plt>
  402108:	48 8b bd 58 df ff ff 	mov    -0x20a8(%rbp),%rdi
  40210f:	31 f6                	xor    %esi,%esi
  402111:	e8 4a f0 ff ff       	callq  401160 <uv_close@plt>
  402116:	48 8b b5 80 df ff ff 	mov    -0x2080(%rbp),%rsi
  40211d:	48 8d bd 70 df ff ff 	lea    -0x2090(%rbp),%rdi
  402124:	e8 77 03 00 00       	callq  4024a0 <_ZNSt8_Rb_treeINSt7__cxx1112basic_stringIcSt11char_traitsIcESaIcEEESt4pairIKS5_S5_ESt10_Select1stIS8_ESt4lessIS5_ESaIS8_EE8_M_eraseEPSt13_Rb_tree_nodeIS8_E>
  402129:	31 c0                	xor    %eax,%eax
  40212b:	48 8b 75 c8          	mov    -0x38(%rbp),%rsi
  40212f:	64 48 33 34 25 28 00 	xor    %fs:0x28,%rsi
  402136:	00 00 
  402138:	0f 85 90 00 00 00    	jne    4021ce <_Z19on_message_completeP11http_parser+0x37e>
  40213e:	48 81 c4 88 20 00 00 	add    $0x2088,%rsp
  402145:	5b                   	pop    %rbx
  402146:	41 5c                	pop    %r12
  402148:	41 5d                	pop    %r13
  40214a:	41 5e                	pop    %r14
  40214c:	41 5f                	pop    %r15
  40214e:	5d                   	pop    %rbp
  40214f:	c3                   	retq   
  402150:	4c 89 f9             	mov    %r15,%rcx
  402153:	48 29 d9             	sub    %rbx,%rcx
  402156:	48 81 f9 ff ff ff 7f 	cmp    $0x7fffffff,%rcx
  40215d:	0f 8f 6d ff ff ff    	jg     4020d0 <_Z19on_message_completeP11http_parser+0x280>
  402163:	48 81 f9 00 00 00 80 	cmp    $0xffffffff80000000,%rcx
  40216a:	7d 34                	jge    4021a0 <_Z19on_message_completeP11http_parser+0x350>
  40216c:	48 8d 85 a0 df ff ff 	lea    -0x2060(%rbp),%rax
  402173:	48 83 c0 10          	add    $0x10,%rax
  402177:	49 39 c6             	cmp    %rax,%r14
  40217a:	0f 84 7e ff ff ff    	je     4020fe <_Z19on_message_completeP11http_parser+0x2ae>
  402180:	4c 89 f7             	mov    %r14,%rdi
  402183:	e8 c8 f0 ff ff       	callq  401250 <_ZdlPv@plt>
  402188:	e9 71 ff ff ff       	jmpq   4020fe <_Z19on_message_completeP11http_parser+0x2ae>
  40218d:	0f 1f 00             	nopl   (%rax)
  402190:	bf 40 31 40 00       	mov    $0x403140,%edi
  402195:	e8 76 f1 ff ff       	callq  401310 <puts@plt>
  40219a:	e9 77 ff ff ff       	jmpq   402116 <_Z19on_message_completeP11http_parser+0x2c6>
  40219f:	90                   	nop
  4021a0:	89 c8                	mov    %ecx,%eax
  4021a2:	e9 21 ff ff ff       	jmpq   4020c8 <_Z19on_message_completeP11http_parser+0x278>
  4021a7:	4c 8b b5 a0 df ff ff 	mov    -0x2060(%rbp),%r14
  4021ae:	eb bc                	jmp    40216c <_Z19on_message_completeP11http_parser+0x31c>
  4021b0:	48 8b b5 80 df ff ff 	mov    -0x2080(%rbp),%rsi
  4021b7:	48 8d bd 70 df ff ff 	lea    -0x2090(%rbp),%rdi
  4021be:	48 89 c3             	mov    %rax,%rbx
  4021c1:	e8 da 02 00 00       	callq  4024a0 <_ZNSt8_Rb_treeINSt7__cxx1112basic_stringIcSt11char_traitsIcESaIcEEESt4pairIKS5_S5_ESt10_Select1stIS8_ESt4lessIS5_ESaIS8_EE8_M_eraseEPSt13_Rb_tree_nodeIS8_E>
  4021c6:	48 89 df             	mov    %rbx,%rdi
  4021c9:	e8 a2 f1 ff ff       	callq  401370 <_Unwind_Resume@plt>
  4021ce:	e8 bd f0 ff ff       	callq  401290 <__stack_chk_fail@plt>
  4021d3:	66 2e 0f 1f 84 00 00 	nopw   %cs:0x0(%rax,%rax,1)
  4021da:	00 00 00 
  4021dd:	0f 1f 00             	nopl   (%rax)

00000000004021e0 <_ZNSt8_Rb_treeINSt7__cxx1112basic_stringIcSt11char_traitsIcESaIcEEESt4pairIKS5_S5_ESt10_Select1stIS8_ESt4lessIS5_ESaIS8_EE16_M_insert_uniqueERKS8_>:
  4021e0:	55                   	push   %rbp
  4021e1:	48 89 f8             	mov    %rdi,%rax
  4021e4:	48 83 c0 08          	add    $0x8,%rax
  4021e8:	48 89 e5             	mov    %rsp,%rbp
  4021eb:	41 57                	push   %r15
  4021ed:	41 56                	push   %r14
  4021ef:	41 55                	push   %r13
  4021f1:	41 54                	push   %r12
  4021f3:	53                   	push   %rbx
  4021f4:	48 83 ec 28          	sub    $0x28,%rsp
  4021f8:	4c 8b 7f 10          	mov    0x10(%rdi),%r15
  4021fc:	48 89 7d c0          	mov    %rdi,-0x40(%rbp)
  402200:	48 89 75 b8          	mov    %rsi,-0x48(%rbp)
  402204:	48 89 45 b0          	mov    %rax,-0x50(%rbp)
  402208:	4d 85 ff             	test   %r15,%r15
  40220b:	0f 84 c0 00 00 00    	je     4022d1 <_ZNSt8_Rb_treeINSt7__cxx1112basic_stringIcSt11char_traitsIcESaIcEEESt4pairIKS5_S5_ESt10_Select1stIS8_ESt4lessIS5_ESaIS8_EE16_M_insert_uniqueERKS8_+0xf1>
  402211:	48 8b 06             	mov    (%rsi),%rax
  402214:	4c 8b 6e 08          	mov    0x8(%rsi),%r13
  402218:	48 89 45 c8          	mov    %rax,-0x38(%rbp)
  40221c:	eb 27                	jmp    402245 <_ZNSt8_Rb_treeINSt7__cxx1112basic_stringIcSt11char_traitsIcESaIcEEESt4pairIKS5_S5_ESt10_Select1stIS8_ESt4lessIS5_ESaIS8_EE16_M_insert_uniqueERKS8_+0x65>
  40221e:	66 90                	xchg   %ax,%ax
  402220:	48 8b 7d c8          	mov    -0x38(%rbp),%rdi
  402224:	4c 89 f2             	mov    %r14,%rdx
  402227:	4c 89 e6             	mov    %r12,%rsi
  40222a:	e8 71 ef ff ff       	callq  4011a0 <memcmp@plt>
  40222f:	85 c0                	test   %eax,%eax
  402231:	74 29                	je     40225c <_ZNSt8_Rb_treeINSt7__cxx1112basic_stringIcSt11char_traitsIcESaIcEEESt4pairIKS5_S5_ESt10_Select1stIS8_ESt4lessIS5_ESaIS8_EE16_M_insert_uniqueERKS8_+0x7c>
  402233:	85 c0                	test   %eax,%eax
  402235:	78 3b                	js     402272 <_ZNSt8_Rb_treeINSt7__cxx1112basic_stringIcSt11char_traitsIcESaIcEEESt4pairIKS5_S5_ESt10_Select1stIS8_ESt4lessIS5_ESaIS8_EE16_M_insert_uniqueERKS8_+0x92>
  402237:	49 8b 47 18          	mov    0x18(%r15),%rax
  40223b:	31 f6                	xor    %esi,%esi
  40223d:	48 85 c0             	test   %rax,%rax
  402240:	74 3e                	je     402280 <_ZNSt8_Rb_treeINSt7__cxx1112basic_stringIcSt11char_traitsIcESaIcEEESt4pairIKS5_S5_ESt10_Select1stIS8_ESt4lessIS5_ESaIS8_EE16_M_insert_uniqueERKS8_+0xa0>
  402242:	49 89 c7             	mov    %rax,%r15
  402245:	49 8b 5f 28          	mov    0x28(%r15),%rbx
  402249:	4d 89 ee             	mov    %r13,%r14
  40224c:	4d 8b 67 20          	mov    0x20(%r15),%r12
  402250:	4c 39 eb             	cmp    %r13,%rbx
  402253:	4c 0f 46 f3          	cmovbe %rbx,%r14
  402257:	4d 85 f6             	test   %r14,%r14
  40225a:	75 c4                	jne    402220 <_ZNSt8_Rb_treeINSt7__cxx1112basic_stringIcSt11char_traitsIcESaIcEEESt4pairIKS5_S5_ESt10_Select1stIS8_ESt4lessIS5_ESaIS8_EE16_M_insert_uniqueERKS8_+0x40>
  40225c:	4c 89 e8             	mov    %r13,%rax
  40225f:	48 29 d8             	sub    %rbx,%rax
  402262:	48 3d ff ff ff 7f    	cmp    $0x7fffffff,%rax
  402268:	7f cd                	jg     402237 <_ZNSt8_Rb_treeINSt7__cxx1112basic_stringIcSt11char_traitsIcESaIcEEESt4pairIKS5_S5_ESt10_Select1stIS8_ESt4lessIS5_ESaIS8_EE16_M_insert_uniqueERKS8_+0x57>
  40226a:	48 3d 00 00 00 80    	cmp    $0xffffffff80000000,%rax
  402270:	7d c1                	jge    402233 <_ZNSt8_Rb_treeINSt7__cxx1112basic_stringIcSt11char_traitsIcESaIcEEESt4pairIKS5_S5_ESt10_Select1stIS8_ESt4lessIS5_ESaIS8_EE16_M_insert_uniqueERKS8_+0x53>
  402272:	49 8b 47 10          	mov    0x10(%r15),%rax
  402276:	be 01 00 00 00       	mov    $0x1,%esi
  40227b:	48 85 c0             	test   %rax,%rax
  40227e:	75 c2                	jne    402242 <_ZNSt8_Rb_treeINSt7__cxx1112basic_stringIcSt11char_traitsIcESaIcEEESt4pairIKS5_S5_ESt10_Select1stIS8_ESt4lessIS5_ESaIS8_EE16_M_insert_uniqueERKS8_+0x62>
  402280:	40 84 f6             	test   %sil,%sil
  402283:	4c 89 f2             	mov    %r14,%rdx
  402286:	4d 89 fe             	mov    %r15,%r14
  402289:	75 4d                	jne    4022d8 <_ZNSt8_Rb_treeINSt7__cxx1112basic_stringIcSt11char_traitsIcESaIcEEESt4pairIKS5_S5_ESt10_Select1stIS8_ESt4lessIS5_ESaIS8_EE16_M_insert_uniqueERKS8_+0xf8>
  40228b:	48 85 d2             	test   %rdx,%rdx
  40228e:	74 30                	je     4022c0 <_ZNSt8_Rb_treeINSt7__cxx1112basic_stringIcSt11char_traitsIcESaIcEEESt4pairIKS5_S5_ESt10_Select1stIS8_ESt4lessIS5_ESaIS8_EE16_M_insert_uniqueERKS8_+0xe0>
  402290:	48 8b 75 c8          	mov    -0x38(%rbp),%rsi
  402294:	4c 89 e7             	mov    %r12,%rdi
  402297:	e8 04 ef ff ff       	callq  4011a0 <memcmp@plt>
  40229c:	85 c0                	test   %eax,%eax
  40229e:	74 20                	je     4022c0 <_ZNSt8_Rb_treeINSt7__cxx1112basic_stringIcSt11char_traitsIcESaIcEEESt4pairIKS5_S5_ESt10_Select1stIS8_ESt4lessIS5_ESaIS8_EE16_M_insert_uniqueERKS8_+0xe0>
  4022a0:	85 c0                	test   %eax,%eax
  4022a2:	4c 89 f9             	mov    %r15,%rcx
  4022a5:	0f 88 82 00 00 00    	js     40232d <_ZNSt8_Rb_treeINSt7__cxx1112basic_stringIcSt11char_traitsIcESaIcEEESt4pairIKS5_S5_ESt10_Select1stIS8_ESt4lessIS5_ESaIS8_EE16_M_insert_uniqueERKS8_+0x14d>
  4022ab:	48 83 c4 28          	add    $0x28,%rsp
  4022af:	48 89 c8             	mov    %rcx,%rax
  4022b2:	31 d2                	xor    %edx,%edx
  4022b4:	5b                   	pop    %rbx
  4022b5:	41 5c                	pop    %r12
  4022b7:	41 5d                	pop    %r13
  4022b9:	41 5e                	pop    %r14
  4022bb:	41 5f                	pop    %r15
  4022bd:	5d                   	pop    %rbp
  4022be:	c3                   	retq   
  4022bf:	90                   	nop
  4022c0:	4c 29 eb             	sub    %r13,%rbx
  4022c3:	48 81 fb ff ff ff 7f 	cmp    $0x7fffffff,%rbx
  4022ca:	7e 54                	jle    402320 <_ZNSt8_Rb_treeINSt7__cxx1112basic_stringIcSt11char_traitsIcESaIcEEESt4pairIKS5_S5_ESt10_Select1stIS8_ESt4lessIS5_ESaIS8_EE16_M_insert_uniqueERKS8_+0x140>
  4022cc:	4c 89 f9             	mov    %r15,%rcx
  4022cf:	eb da                	jmp    4022ab <_ZNSt8_Rb_treeINSt7__cxx1112basic_stringIcSt11char_traitsIcESaIcEEESt4pairIKS5_S5_ESt10_Select1stIS8_ESt4lessIS5_ESaIS8_EE16_M_insert_uniqueERKS8_+0xcb>
  4022d1:	4c 8b 7d b0          	mov    -0x50(%rbp),%r15
  4022d5:	0f 1f 00             	nopl   (%rax)
  4022d8:	48 8b 45 c0          	mov    -0x40(%rbp),%rax
  4022dc:	4c 39 78 18          	cmp    %r15,0x18(%rax)
  4022e0:	0f 84 21 01 00 00    	je     402407 <_ZNSt8_Rb_treeINSt7__cxx1112basic_stringIcSt11char_traitsIcESaIcEEESt4pairIKS5_S5_ESt10_Select1stIS8_ESt4lessIS5_ESaIS8_EE16_M_insert_uniqueERKS8_+0x227>
  4022e6:	4c 89 ff             	mov    %r15,%rdi
  4022e9:	4d 89 fe             	mov    %r15,%r14
  4022ec:	e8 7f ef ff ff       	callq  401270 <_ZSt18_Rb_tree_decrementPSt18_Rb_tree_node_base@plt>
  4022f1:	48 8b 4d b8          	mov    -0x48(%rbp),%rcx
  4022f5:	48 8b 58 28          	mov    0x28(%rax),%rbx
  4022f9:	49 89 c7             	mov    %rax,%r15
  4022fc:	4c 8b 60 20          	mov    0x20(%rax),%r12
  402300:	4c 8b 69 08          	mov    0x8(%rcx),%r13
  402304:	48 8b 09             	mov    (%rcx),%rcx
  402307:	48 89 da             	mov    %rbx,%rdx
  40230a:	49 39 dd             	cmp    %rbx,%r13
  40230d:	48 89 4d c8          	mov    %rcx,-0x38(%rbp)
  402311:	49 0f 46 d5          	cmovbe %r13,%rdx
  402315:	e9 71 ff ff ff       	jmpq   40228b <_ZNSt8_Rb_treeINSt7__cxx1112basic_stringIcSt11char_traitsIcESaIcEEESt4pairIKS5_S5_ESt10_Select1stIS8_ESt4lessIS5_ESaIS8_EE16_M_insert_uniqueERKS8_+0xab>
  40231a:	66 0f 1f 44 00 00    	nopw   0x0(%rax,%rax,1)
  402320:	48 81 fb 00 00 00 80 	cmp    $0xffffffff80000000,%rbx
  402327:	0f 8d d3 00 00 00    	jge    402400 <_ZNSt8_Rb_treeINSt7__cxx1112basic_stringIcSt11char_traitsIcESaIcEEESt4pairIKS5_S5_ESt10_Select1stIS8_ESt4lessIS5_ESaIS8_EE16_M_insert_uniqueERKS8_+0x220>
  40232d:	4d 85 f6             	test   %r14,%r14
  402330:	0f 84 26 01 00 00    	je     40245c <_ZNSt8_Rb_treeINSt7__cxx1112basic_stringIcSt11char_traitsIcESaIcEEESt4pairIKS5_S5_ESt10_Select1stIS8_ESt4lessIS5_ESaIS8_EE16_M_insert_uniqueERKS8_+0x27c>
  402336:	4c 39 75 b0          	cmp    %r14,-0x50(%rbp)
  40233a:	0f 84 ee 00 00 00    	je     40242e <_ZNSt8_Rb_treeINSt7__cxx1112basic_stringIcSt11char_traitsIcESaIcEEESt4pairIKS5_S5_ESt10_Select1stIS8_ESt4lessIS5_ESaIS8_EE16_M_insert_uniqueERKS8_+0x24e>
  402340:	48 8b 45 b8          	mov    -0x48(%rbp),%rax
  402344:	4d 8b 7e 28          	mov    0x28(%r14),%r15
  402348:	48 8b 58 08          	mov    0x8(%rax),%rbx
  40234c:	4c 89 fa             	mov    %r15,%rdx
  40234f:	4c 39 fb             	cmp    %r15,%rbx
  402352:	48 0f 46 d3          	cmovbe %rbx,%rdx
  402356:	48 85 d2             	test   %rdx,%rdx
  402359:	0f 84 b0 00 00 00    	je     40240f <_ZNSt8_Rb_treeINSt7__cxx1112basic_stringIcSt11char_traitsIcESaIcEEESt4pairIKS5_S5_ESt10_Select1stIS8_ESt4lessIS5_ESaIS8_EE16_M_insert_uniqueERKS8_+0x22f>
  40235f:	49 8b 76 20          	mov    0x20(%r14),%rsi
  402363:	48 8b 38             	mov    (%rax),%rdi
  402366:	e8 35 ee ff ff       	callq  4011a0 <memcmp@plt>
  40236b:	85 c0                	test   %eax,%eax
  40236d:	0f 84 9c 00 00 00    	je     40240f <_ZNSt8_Rb_treeINSt7__cxx1112basic_stringIcSt11char_traitsIcESaIcEEESt4pairIKS5_S5_ESt10_Select1stIS8_ESt4lessIS5_ESaIS8_EE16_M_insert_uniqueERKS8_+0x22f>
  402373:	85 c0                	test   %eax,%eax
  402375:	0f 88 be 00 00 00    	js     402439 <_ZNSt8_Rb_treeINSt7__cxx1112basic_stringIcSt11char_traitsIcESaIcEEESt4pairIKS5_S5_ESt10_Select1stIS8_ESt4lessIS5_ESaIS8_EE16_M_insert_uniqueERKS8_+0x259>
  40237b:	45 31 ed             	xor    %r13d,%r13d
  40237e:	bf 60 00 00 00       	mov    $0x60,%edi
  402383:	e8 d8 ee ff ff       	callq  401260 <_Znwm@plt>
  402388:	48 8d 78 20          	lea    0x20(%rax),%rdi
  40238c:	48 89 c3             	mov    %rax,%rbx
  40238f:	4c 8b 65 b8          	mov    -0x48(%rbp),%r12
  402393:	4c 8d 7b 30          	lea    0x30(%rbx),%r15
  402397:	4c 89 7b 20          	mov    %r15,0x20(%rbx)
  40239b:	49 8b 34 24          	mov    (%r12),%rsi
  40239f:	48 89 f2             	mov    %rsi,%rdx
  4023a2:	49 03 54 24 08       	add    0x8(%r12),%rdx
  4023a7:	e8 44 f3 ff ff       	callq  4016f0 <_ZNSt7__cxx1112basic_stringIcSt11char_traitsIcESaIcEE12_M_constructIPKcEEvT_S8_St20forward_iterator_tag.isra.31>
  4023ac:	49 8b 74 24 20       	mov    0x20(%r12),%rsi
  4023b1:	48 8d 43 50          	lea    0x50(%rbx),%rax
  4023b5:	48 8d 7b 40          	lea    0x40(%rbx),%rdi
  4023b9:	48 89 43 40          	mov    %rax,0x40(%rbx)
  4023bd:	48 89 f2             	mov    %rsi,%rdx
  4023c0:	49 03 54 24 28       	add    0x28(%r12),%rdx
  4023c5:	e8 26 f3 ff ff       	callq  4016f0 <_ZNSt7__cxx1112basic_stringIcSt11char_traitsIcESaIcEE12_M_constructIPKcEEvT_S8_St20forward_iterator_tag.isra.31>
  4023ca:	48 8b 4d b0          	mov    -0x50(%rbp),%rcx
  4023ce:	4c 89 f2             	mov    %r14,%rdx
  4023d1:	41 0f b6 fd          	movzbl %r13b,%edi
  4023d5:	48 89 de             	mov    %rbx,%rsi
  4023d8:	e8 63 ed ff ff       	callq  401140 <_ZSt29_Rb_tree_insert_and_rebalancebPSt18_Rb_tree_node_baseS0_RS_@plt>
  4023dd:	48 8b 45 c0          	mov    -0x40(%rbp),%rax
  4023e1:	ba 01 00 00 00       	mov    $0x1,%edx
  4023e6:	48 83 40 28 01       	addq   $0x1,0x28(%rax)
  4023eb:	48 83 c4 28          	add    $0x28,%rsp
  4023ef:	48 89 d8             	mov    %rbx,%rax
  4023f2:	5b                   	pop    %rbx
  4023f3:	41 5c                	pop    %r12
  4023f5:	41 5d                	pop    %r13
  4023f7:	41 5e                	pop    %r14
  4023f9:	41 5f                	pop    %r15
  4023fb:	5d                   	pop    %rbp
  4023fc:	c3                   	retq   
  4023fd:	0f 1f 00             	nopl   (%rax)
  402400:	89 d8                	mov    %ebx,%eax
  402402:	e9 99 fe ff ff       	jmpq   4022a0 <_ZNSt8_Rb_treeINSt7__cxx1112basic_stringIcSt11char_traitsIcESaIcEEESt4pairIKS5_S5_ESt10_Select1stIS8_ESt4lessIS5_ESaIS8_EE16_M_insert_uniqueERKS8_+0xc0>
  402407:	4d 89 fe             	mov    %r15,%r14
  40240a:	e9 27 ff ff ff       	jmpq   402336 <_ZNSt8_Rb_treeINSt7__cxx1112basic_stringIcSt11char_traitsIcESaIcEEESt4pairIKS5_S5_ESt10_Select1stIS8_ESt4lessIS5_ESaIS8_EE16_M_insert_uniqueERKS8_+0x156>
  40240f:	4c 29 fb             	sub    %r15,%rbx
  402412:	48 81 fb ff ff ff 7f 	cmp    $0x7fffffff,%rbx
  402419:	0f 8f 5c ff ff ff    	jg     40237b <_ZNSt8_Rb_treeINSt7__cxx1112basic_stringIcSt11char_traitsIcESaIcEEESt4pairIKS5_S5_ESt10_Select1stIS8_ESt4lessIS5_ESaIS8_EE16_M_insert_uniqueERKS8_+0x19b>
  40241f:	48 81 fb 00 00 00 80 	cmp    $0xffffffff80000000,%rbx
  402426:	89 d8                	mov    %ebx,%eax
  402428:	0f 8d 45 ff ff ff    	jge    402373 <_ZNSt8_Rb_treeINSt7__cxx1112basic_stringIcSt11char_traitsIcESaIcEEESt4pairIKS5_S5_ESt10_Select1stIS8_ESt4lessIS5_ESaIS8_EE16_M_insert_uniqueERKS8_+0x193>
  40242e:	41 bd 01 00 00 00    	mov    $0x1,%r13d
  402434:	e9 45 ff ff ff       	jmpq   40237e <_ZNSt8_Rb_treeINSt7__cxx1112basic_stringIcSt11char_traitsIcESaIcEEESt4pairIKS5_S5_ESt10_Select1stIS8_ESt4lessIS5_ESaIS8_EE16_M_insert_uniqueERKS8_+0x19e>
  402439:	bf 60 00 00 00       	mov    $0x60,%edi
  40243e:	41 bd 01 00 00 00    	mov    $0x1,%r13d
  402444:	e8 17 ee ff ff       	callq  401260 <_Znwm@plt>
  402449:	48 89 c3             	mov    %rax,%rbx
  40244c:	48 8d 78 20          	lea    0x20(%rax),%rdi
  402450:	e9 3a ff ff ff       	jmpq   40238f <_ZNSt8_Rb_treeINSt7__cxx1112basic_stringIcSt11char_traitsIcESaIcEEESt4pairIKS5_S5_ESt10_Select1stIS8_ESt4lessIS5_ESaIS8_EE16_M_insert_uniqueERKS8_+0x1af>
  402455:	eb 1d                	jmp    402474 <_ZNSt8_Rb_treeINSt7__cxx1112basic_stringIcSt11char_traitsIcESaIcEEESt4pairIKS5_S5_ESt10_Select1stIS8_ESt4lessIS5_ESaIS8_EE16_M_insert_uniqueERKS8_+0x294>
  402457:	49 89 c4             	mov    %rax,%r12
  40245a:	eb 07                	jmp    402463 <_ZNSt8_Rb_treeINSt7__cxx1112basic_stringIcSt11char_traitsIcESaIcEEESt4pairIKS5_S5_ESt10_Select1stIS8_ESt4lessIS5_ESaIS8_EE16_M_insert_uniqueERKS8_+0x283>
  40245c:	31 c9                	xor    %ecx,%ecx
  40245e:	e9 48 fe ff ff       	jmpq   4022ab <_ZNSt8_Rb_treeINSt7__cxx1112basic_stringIcSt11char_traitsIcESaIcEEESt4pairIKS5_S5_ESt10_Select1stIS8_ESt4lessIS5_ESaIS8_EE16_M_insert_uniqueERKS8_+0xcb>
  402463:	48 8b 7b 20          	mov    0x20(%rbx),%rdi
  402467:	49 39 ff             	cmp    %rdi,%r15
  40246a:	74 05                	je     402471 <_ZNSt8_Rb_treeINSt7__cxx1112basic_stringIcSt11char_traitsIcESaIcEEESt4pairIKS5_S5_ESt10_Select1stIS8_ESt4lessIS5_ESaIS8_EE16_M_insert_uniqueERKS8_+0x291>
  40246c:	e8 df ed ff ff       	callq  401250 <_ZdlPv@plt>
  402471:	4c 89 e0             	mov    %r12,%rax
  402474:	48 89 c7             	mov    %rax,%rdi
  402477:	e8 f4 ec ff ff       	callq  401170 <__cxa_begin_catch@plt>
  40247c:	48 89 df             	mov    %rbx,%rdi
  40247f:	e8 cc ed ff ff       	callq  401250 <_ZdlPv@plt>
  402484:	e8 67 ee ff ff       	callq  4012f0 <__cxa_rethrow@plt>
  402489:	48 89 c3             	mov    %rax,%rbx
  40248c:	e8 9f ee ff ff       	callq  401330 <__cxa_end_catch@plt>
  402491:	48 89 df             	mov    %rbx,%rdi
  402494:	e8 d7 ee ff ff       	callq  401370 <_Unwind_Resume@plt>
  402499:	0f 1f 80 00 00 00 00 	nopl   0x0(%rax)

00000000004024a0 <_ZNSt8_Rb_treeINSt7__cxx1112basic_stringIcSt11char_traitsIcESaIcEEESt4pairIKS5_S5_ESt10_Select1stIS8_ESt4lessIS5_ESaIS8_EE8_M_eraseEPSt13_Rb_tree_nodeIS8_E>:
  4024a0:	48 85 f6             	test   %rsi,%rsi
  4024a3:	74 69                	je     40250e <_ZNSt8_Rb_treeINSt7__cxx1112basic_stringIcSt11char_traitsIcESaIcEEESt4pairIKS5_S5_ESt10_Select1stIS8_ESt4lessIS5_ESaIS8_EE8_M_eraseEPSt13_Rb_tree_nodeIS8_E+0x6e>
  4024a5:	55                   	push   %rbp
  4024a6:	48 89 e5             	mov    %rsp,%rbp
  4024a9:	41 55                	push   %r13
  4024ab:	41 54                	push   %r12
  4024ad:	53                   	push   %rbx
  4024ae:	49 89 fd             	mov    %rdi,%r13
  4024b1:	48 89 f3             	mov    %rsi,%rbx
  4024b4:	48 83 ec 08          	sub    $0x8,%rsp
  4024b8:	0f 1f 84 00 00 00 00 	nopl   0x0(%rax,%rax,1)
  4024bf:	00 
  4024c0:	48 8b 73 18          	mov    0x18(%rbx),%rsi
  4024c4:	4c 89 ef             	mov    %r13,%rdi
  4024c7:	e8 d4 ff ff ff       	callq  4024a0 <_ZNSt8_Rb_treeINSt7__cxx1112basic_stringIcSt11char_traitsIcESaIcEEESt4pairIKS5_S5_ESt10_Select1stIS8_ESt4lessIS5_ESaIS8_EE8_M_eraseEPSt13_Rb_tree_nodeIS8_E>
  4024cc:	48 8b 7b 40          	mov    0x40(%rbx),%rdi
  4024d0:	48 8d 43 50          	lea    0x50(%rbx),%rax
  4024d4:	4c 8b 63 10          	mov    0x10(%rbx),%r12
  4024d8:	48 39 c7             	cmp    %rax,%rdi
  4024db:	74 05                	je     4024e2 <_ZNSt8_Rb_treeINSt7__cxx1112basic_stringIcSt11char_traitsIcESaIcEEESt4pairIKS5_S5_ESt10_Select1stIS8_ESt4lessIS5_ESaIS8_EE8_M_eraseEPSt13_Rb_tree_nodeIS8_E+0x42>
  4024dd:	e8 6e ed ff ff       	callq  401250 <_ZdlPv@plt>
  4024e2:	48 8b 7b 20          	mov    0x20(%rbx),%rdi
  4024e6:	48 8d 43 30          	lea    0x30(%rbx),%rax
  4024ea:	48 39 c7             	cmp    %rax,%rdi
  4024ed:	74 05                	je     4024f4 <_ZNSt8_Rb_treeINSt7__cxx1112basic_stringIcSt11char_traitsIcESaIcEEESt4pairIKS5_S5_ESt10_Select1stIS8_ESt4lessIS5_ESaIS8_EE8_M_eraseEPSt13_Rb_tree_nodeIS8_E+0x54>
  4024ef:	e8 5c ed ff ff       	callq  401250 <_ZdlPv@plt>
  4024f4:	48 89 df             	mov    %rbx,%rdi
  4024f7:	4c 89 e3             	mov    %r12,%rbx
  4024fa:	e8 51 ed ff ff       	callq  401250 <_ZdlPv@plt>
  4024ff:	4d 85 e4             	test   %r12,%r12
  402502:	75 bc                	jne    4024c0 <_ZNSt8_Rb_treeINSt7__cxx1112basic_stringIcSt11char_traitsIcESaIcEEESt4pairIKS5_S5_ESt10_Select1stIS8_ESt4lessIS5_ESaIS8_EE8_M_eraseEPSt13_Rb_tree_nodeIS8_E+0x20>
  402504:	48 83 c4 08          	add    $0x8,%rsp
  402508:	5b                   	pop    %rbx
  402509:	41 5c                	pop    %r12
  40250b:	41 5d                	pop    %r13
  40250d:	5d                   	pop    %rbp
  40250e:	f3 c3                	repz retq 

0000000000402510 <_ZNSt8_Rb_treeINSt7__cxx1112basic_stringIcSt11char_traitsIcESaIcEEESt4pairIKS5_S5_ESt10_Select1stIS8_ESt4lessIS5_ESaIS8_EE7_M_copyINSE_11_Alloc_nodeEEEPSt13_Rb_tree_nodeIS8_EPKSI_SJ_RT_>:
  402510:	55                   	push   %rbp
  402511:	48 89 e5             	mov    %rsp,%rbp
  402514:	41 57                	push   %r15
  402516:	41 56                	push   %r14
  402518:	41 55                	push   %r13
  40251a:	41 54                	push   %r12
  40251c:	49 89 ff             	mov    %rdi,%r15
  40251f:	53                   	push   %rbx
  402520:	bf 60 00 00 00       	mov    $0x60,%edi
  402525:	48 89 f3             	mov    %rsi,%rbx
  402528:	49 89 d5             	mov    %rdx,%r13
  40252b:	48 83 ec 18          	sub    $0x18,%rsp
  40252f:	48 89 4d c8          	mov    %rcx,-0x38(%rbp)
  402533:	e8 28 ed ff ff       	callq  401260 <_Znwm@plt>
  402538:	48 8b 73 20          	mov    0x20(%rbx),%rsi
  40253c:	4c 8d 60 30          	lea    0x30(%rax),%r12
  402540:	48 8d 78 20          	lea    0x20(%rax),%rdi
  402544:	48 89 45 c0          	mov    %rax,-0x40(%rbp)
  402548:	49 89 c6             	mov    %rax,%r14
  40254b:	4c 89 60 20          	mov    %r12,0x20(%rax)
  40254f:	48 89 f2             	mov    %rsi,%rdx
  402552:	48 03 53 28          	add    0x28(%rbx),%rdx
  402556:	e8 95 f1 ff ff       	callq  4016f0 <_ZNSt7__cxx1112basic_stringIcSt11char_traitsIcESaIcEE12_M_constructIPKcEEvT_S8_St20forward_iterator_tag.isra.31>
  40255b:	48 8b 73 40          	mov    0x40(%rbx),%rsi
  40255f:	4c 89 f0             	mov    %r14,%rax
  402562:	49 8d 7e 40          	lea    0x40(%r14),%rdi
  402566:	48 83 c0 50          	add    $0x50,%rax
  40256a:	49 89 46 40          	mov    %rax,0x40(%r14)
  40256e:	48 89 f2             	mov    %rsi,%rdx
  402571:	48 03 53 48          	add    0x48(%rbx),%rdx
  402575:	e8 76 f1 ff ff       	callq  4016f0 <_ZNSt7__cxx1112basic_stringIcSt11char_traitsIcESaIcEE12_M_constructIPKcEEvT_S8_St20forward_iterator_tag.isra.31>
  40257a:	48 8b 73 18          	mov    0x18(%rbx),%rsi
  40257e:	48 8b 4d c0          	mov    -0x40(%rbp),%rcx
  402582:	8b 03                	mov    (%rbx),%eax
  402584:	48 85 f6             	test   %rsi,%rsi
  402587:	48 c7 41 10 00 00 00 	movq   $0x0,0x10(%rcx)
  40258e:	00 
  40258f:	49 89 ce             	mov    %rcx,%r14
  402592:	89 01                	mov    %eax,(%rcx)
  402594:	48 c7 41 18 00 00 00 	movq   $0x0,0x18(%rcx)
  40259b:	00 
  40259c:	4c 89 69 08          	mov    %r13,0x8(%rcx)
  4025a0:	74 13                	je     4025b5 <_ZNSt8_Rb_treeINSt7__cxx1112basic_stringIcSt11char_traitsIcESaIcEEESt4pairIKS5_S5_ESt10_Select1stIS8_ESt4lessIS5_ESaIS8_EE7_M_copyINSE_11_Alloc_nodeEEEPSt13_Rb_tree_nodeIS8_EPKSI_SJ_RT_+0xa5>
  4025a2:	48 8b 4d c8          	mov    -0x38(%rbp),%rcx
  4025a6:	4c 89 f2             	mov    %r14,%rdx
  4025a9:	4c 89 ff             	mov    %r15,%rdi
  4025ac:	e8 5f ff ff ff       	callq  402510 <_ZNSt8_Rb_treeINSt7__cxx1112basic_stringIcSt11char_traitsIcESaIcEEESt4pairIKS5_S5_ESt10_Select1stIS8_ESt4lessIS5_ESaIS8_EE7_M_copyINSE_11_Alloc_nodeEEEPSt13_Rb_tree_nodeIS8_EPKSI_SJ_RT_>
  4025b1:	49 89 46 18          	mov    %rax,0x18(%r14)
  4025b5:	4c 8b 63 10          	mov    0x10(%rbx),%r12
  4025b9:	4c 8b 6d c0          	mov    -0x40(%rbp),%r13
  4025bd:	4d 85 e4             	test   %r12,%r12
  4025c0:	0f 84 9f 00 00 00    	je     402665 <_ZNSt8_Rb_treeINSt7__cxx1112basic_stringIcSt11char_traitsIcESaIcEEESt4pairIKS5_S5_ESt10_Select1stIS8_ESt4lessIS5_ESaIS8_EE7_M_copyINSE_11_Alloc_nodeEEEPSt13_Rb_tree_nodeIS8_EPKSI_SJ_RT_+0x155>
  4025c6:	66 2e 0f 1f 84 00 00 	nopw   %cs:0x0(%rax,%rax,1)
  4025cd:	00 00 00 
  4025d0:	bf 60 00 00 00       	mov    $0x60,%edi
  4025d5:	e8 86 ec ff ff       	callq  401260 <_Znwm@plt>
  4025da:	4c 8d 70 30          	lea    0x30(%rax),%r14
  4025de:	48 8d 78 20          	lea    0x20(%rax),%rdi
  4025e2:	48 89 c3             	mov    %rax,%rbx
  4025e5:	4c 89 70 20          	mov    %r14,0x20(%rax)
  4025e9:	49 8b 74 24 20       	mov    0x20(%r12),%rsi
  4025ee:	48 89 f2             	mov    %rsi,%rdx
  4025f1:	49 03 54 24 28       	add    0x28(%r12),%rdx
  4025f6:	e8 f5 f0 ff ff       	callq  4016f0 <_ZNSt7__cxx1112basic_stringIcSt11char_traitsIcESaIcEE12_M_constructIPKcEEvT_S8_St20forward_iterator_tag.isra.31>
  4025fb:	48 8d 43 50          	lea    0x50(%rbx),%rax
  4025ff:	48 8d 7b 40          	lea    0x40(%rbx),%rdi
  402603:	48 89 43 40          	mov    %rax,0x40(%rbx)
  402607:	49 8b 74 24 40       	mov    0x40(%r12),%rsi
  40260c:	48 89 f2             	mov    %rsi,%rdx
  40260f:	49 03 54 24 48       	add    0x48(%r12),%rdx
  402614:	e8 d7 f0 ff ff       	callq  4016f0 <_ZNSt7__cxx1112basic_stringIcSt11char_traitsIcESaIcEE12_M_constructIPKcEEvT_S8_St20forward_iterator_tag.isra.31>
  402619:	41 8b 04 24          	mov    (%r12),%eax
  40261d:	48 c7 43 18 00 00 00 	movq   $0x0,0x18(%rbx)
  402624:	00 
  402625:	49 8b 74 24 18       	mov    0x18(%r12),%rsi
  40262a:	48 c7 43 10 00 00 00 	movq   $0x0,0x10(%rbx)
  402631:	00 
  402632:	89 03                	mov    %eax,(%rbx)
  402634:	49 89 5d 10          	mov    %rbx,0x10(%r13)
  402638:	48 85 f6             	test   %rsi,%rsi
  40263b:	4c 89 6b 08          	mov    %r13,0x8(%rbx)
  40263f:	74 13                	je     402654 <_ZNSt8_Rb_treeINSt7__cxx1112basic_stringIcSt11char_traitsIcESaIcEEESt4pairIKS5_S5_ESt10_Select1stIS8_ESt4lessIS5_ESaIS8_EE7_M_copyINSE_11_Alloc_nodeEEEPSt13_Rb_tree_nodeIS8_EPKSI_SJ_RT_+0x144>
  402641:	48 8b 4d c8          	mov    -0x38(%rbp),%rcx
  402645:	48 89 da             	mov    %rbx,%rdx
  402648:	4c 89 ff             	mov    %r15,%rdi
  40264b:	e8 c0 fe ff ff       	callq  402510 <_ZNSt8_Rb_treeINSt7__cxx1112basic_stringIcSt11char_traitsIcESaIcEEESt4pairIKS5_S5_ESt10_Select1stIS8_ESt4lessIS5_ESaIS8_EE7_M_copyINSE_11_Alloc_nodeEEEPSt13_Rb_tree_nodeIS8_EPKSI_SJ_RT_>
  402650:	48 89 43 18          	mov    %rax,0x18(%rbx)
  402654:	4d 8b 64 24 10       	mov    0x10(%r12),%r12
  402659:	49 89 dd             	mov    %rbx,%r13
  40265c:	4d 85 e4             	test   %r12,%r12
  40265f:	0f 85 6b ff ff ff    	jne    4025d0 <_ZNSt8_Rb_treeINSt7__cxx1112basic_stringIcSt11char_traitsIcESaIcEEESt4pairIKS5_S5_ESt10_Select1stIS8_ESt4lessIS5_ESaIS8_EE7_M_copyINSE_11_Alloc_nodeEEEPSt13_Rb_tree_nodeIS8_EPKSI_SJ_RT_+0xc0>
  402665:	48 8b 45 c0          	mov    -0x40(%rbp),%rax
  402669:	48 83 c4 18          	add    $0x18,%rsp
  40266d:	5b                   	pop    %rbx
  40266e:	41 5c                	pop    %r12
  402670:	41 5d                	pop    %r13
  402672:	41 5e                	pop    %r14
  402674:	41 5f                	pop    %r15
  402676:	5d                   	pop    %rbp
  402677:	c3                   	retq   
  402678:	eb 21                	jmp    40269b <_ZNSt8_Rb_treeINSt7__cxx1112basic_stringIcSt11char_traitsIcESaIcEEESt4pairIKS5_S5_ESt10_Select1stIS8_ESt4lessIS5_ESaIS8_EE7_M_copyINSE_11_Alloc_nodeEEEPSt13_Rb_tree_nodeIS8_EPKSI_SJ_RT_+0x18b>
  40267a:	49 89 c4             	mov    %rax,%r12
  40267d:	eb 32                	jmp    4026b1 <_ZNSt8_Rb_treeINSt7__cxx1112basic_stringIcSt11char_traitsIcESaIcEEESt4pairIKS5_S5_ESt10_Select1stIS8_ESt4lessIS5_ESaIS8_EE7_M_copyINSE_11_Alloc_nodeEEEPSt13_Rb_tree_nodeIS8_EPKSI_SJ_RT_+0x1a1>
  40267f:	eb 75                	jmp    4026f6 <_ZNSt8_Rb_treeINSt7__cxx1112basic_stringIcSt11char_traitsIcESaIcEEESt4pairIKS5_S5_ESt10_Select1stIS8_ESt4lessIS5_ESaIS8_EE7_M_copyINSE_11_Alloc_nodeEEEPSt13_Rb_tree_nodeIS8_EPKSI_SJ_RT_+0x1e6>
  402681:	eb 3f                	jmp    4026c2 <_ZNSt8_Rb_treeINSt7__cxx1112basic_stringIcSt11char_traitsIcESaIcEEESt4pairIKS5_S5_ESt10_Select1stIS8_ESt4lessIS5_ESaIS8_EE7_M_copyINSE_11_Alloc_nodeEEEPSt13_Rb_tree_nodeIS8_EPKSI_SJ_RT_+0x1b2>
  402683:	48 89 c3             	mov    %rax,%rbx
  402686:	48 8b 45 c0          	mov    -0x40(%rbp),%rax
  40268a:	48 8b 78 20          	mov    0x20(%rax),%rdi
  40268e:	49 39 fc             	cmp    %rdi,%r12
  402691:	74 05                	je     402698 <_ZNSt8_Rb_treeINSt7__cxx1112basic_stringIcSt11char_traitsIcESaIcEEESt4pairIKS5_S5_ESt10_Select1stIS8_ESt4lessIS5_ESaIS8_EE7_M_copyINSE_11_Alloc_nodeEEEPSt13_Rb_tree_nodeIS8_EPKSI_SJ_RT_+0x188>
  402693:	e8 b8 eb ff ff       	callq  401250 <_ZdlPv@plt>
  402698:	48 89 d8             	mov    %rbx,%rax
  40269b:	48 89 c7             	mov    %rax,%rdi
  40269e:	e8 cd ea ff ff       	callq  401170 <__cxa_begin_catch@plt>
  4026a3:	48 8b 7d c0          	mov    -0x40(%rbp),%rdi
  4026a7:	e8 a4 eb ff ff       	callq  401250 <_ZdlPv@plt>
  4026ac:	e8 3f ec ff ff       	callq  4012f0 <__cxa_rethrow@plt>
  4026b1:	48 8b 7b 20          	mov    0x20(%rbx),%rdi
  4026b5:	49 39 fe             	cmp    %rdi,%r14
  4026b8:	74 05                	je     4026bf <_ZNSt8_Rb_treeINSt7__cxx1112basic_stringIcSt11char_traitsIcESaIcEEESt4pairIKS5_S5_ESt10_Select1stIS8_ESt4lessIS5_ESaIS8_EE7_M_copyINSE_11_Alloc_nodeEEEPSt13_Rb_tree_nodeIS8_EPKSI_SJ_RT_+0x1af>
  4026ba:	e8 91 eb ff ff       	callq  401250 <_ZdlPv@plt>
  4026bf:	4c 89 e0             	mov    %r12,%rax
  4026c2:	48 89 c7             	mov    %rax,%rdi
  4026c5:	e8 a6 ea ff ff       	callq  401170 <__cxa_begin_catch@plt>
  4026ca:	48 89 df             	mov    %rbx,%rdi
  4026cd:	e8 7e eb ff ff       	callq  401250 <_ZdlPv@plt>
  4026d2:	e8 19 ec ff ff       	callq  4012f0 <__cxa_rethrow@plt>
  4026d7:	48 89 c3             	mov    %rax,%rbx
  4026da:	eb 05                	jmp    4026e1 <_ZNSt8_Rb_treeINSt7__cxx1112basic_stringIcSt11char_traitsIcESaIcEEESt4pairIKS5_S5_ESt10_Select1stIS8_ESt4lessIS5_ESaIS8_EE7_M_copyINSE_11_Alloc_nodeEEEPSt13_Rb_tree_nodeIS8_EPKSI_SJ_RT_+0x1d1>
  4026dc:	48 89 c3             	mov    %rax,%rbx
  4026df:	eb 0d                	jmp    4026ee <_ZNSt8_Rb_treeINSt7__cxx1112basic_stringIcSt11char_traitsIcESaIcEEESt4pairIKS5_S5_ESt10_Select1stIS8_ESt4lessIS5_ESaIS8_EE7_M_copyINSE_11_Alloc_nodeEEEPSt13_Rb_tree_nodeIS8_EPKSI_SJ_RT_+0x1de>
  4026e1:	e8 4a ec ff ff       	callq  401330 <__cxa_end_catch@plt>
  4026e6:	48 89 df             	mov    %rbx,%rdi
  4026e9:	e8 82 ec ff ff       	callq  401370 <_Unwind_Resume@plt>
  4026ee:	e8 3d ec ff ff       	callq  401330 <__cxa_end_catch@plt>
  4026f3:	48 89 d8             	mov    %rbx,%rax
  4026f6:	48 89 c7             	mov    %rax,%rdi
  4026f9:	e8 72 ea ff ff       	callq  401170 <__cxa_begin_catch@plt>
  4026fe:	48 8b 75 c0          	mov    -0x40(%rbp),%rsi
  402702:	4c 89 ff             	mov    %r15,%rdi
  402705:	e8 96 fd ff ff       	callq  4024a0 <_ZNSt8_Rb_treeINSt7__cxx1112basic_stringIcSt11char_traitsIcESaIcEEESt4pairIKS5_S5_ESt10_Select1stIS8_ESt4lessIS5_ESaIS8_EE8_M_eraseEPSt13_Rb_tree_nodeIS8_E>
  40270a:	e8 e1 eb ff ff       	callq  4012f0 <__cxa_rethrow@plt>
  40270f:	48 89 c3             	mov    %rax,%rbx
  402712:	e8 19 ec ff ff       	callq  401330 <__cxa_end_catch@plt>
  402717:	48 89 df             	mov    %rbx,%rdi
  40271a:	e8 51 ec ff ff       	callq  401370 <_Unwind_Resume@plt>
  40271f:	90                   	nop

0000000000402720 <_Z15ud_session_initv>:
  402720:	55                   	push   %rbp
  402721:	bf b8 00 00 00       	mov    $0xb8,%edi
  402726:	48 89 e5             	mov    %rsp,%rbp
  402729:	e8 32 eb ff ff       	callq  401260 <_Znwm@plt>
  40272e:	48 89 c2             	mov    %rax,%rdx
  402731:	b9 17 00 00 00       	mov    $0x17,%ecx
  402736:	31 c0                	xor    %eax,%eax
  402738:	48 89 d7             	mov    %rdx,%rdi
  40273b:	f3 48 ab             	rep stos %rax,%es:(%rdi)
  40273e:	48 8d 4a 18          	lea    0x18(%rdx),%rcx
  402742:	48 8d 7a 50          	lea    0x50(%rdx),%rdi
  402746:	48 89 4a 08          	mov    %rcx,0x8(%rdx)
  40274a:	48 8d 4a 38          	lea    0x38(%rdx),%rcx
  40274e:	48 83 e7 f8          	and    $0xfffffffffffffff8,%rdi
  402752:	48 89 4a 28          	mov    %rcx,0x28(%rdx)
  402756:	48 8d 8a 90 00 00 00 	lea    0x90(%rdx),%rcx
  40275d:	48 89 8a a0 00 00 00 	mov    %rcx,0xa0(%rdx)
  402764:	48 89 8a a8 00 00 00 	mov    %rcx,0xa8(%rdx)
  40276b:	89 d1                	mov    %edx,%ecx
  40276d:	29 f9                	sub    %edi,%ecx
  40276f:	81 c1 88 00 00 00    	add    $0x88,%ecx
  402775:	c1 e9 03             	shr    $0x3,%ecx
  402778:	f3 48 ab             	rep stos %rax,%es:(%rdi)
  40277b:	48 89 d0             	mov    %rdx,%rax
  40277e:	5d                   	pop    %rbp
  40277f:	c3                   	retq   

0000000000402780 <_Z16ud_mem_pool_initi>:
  402780:	55                   	push   %rbp
  402781:	48 89 e5             	mov    %rsp,%rbp
  402784:	41 57                	push   %r15
  402786:	41 89 ff             	mov    %edi,%r15d
  402789:	41 56                	push   %r14
  40278b:	41 55                	push   %r13
  40278d:	45 89 fd             	mov    %r15d,%r13d
  402790:	41 54                	push   %r12
  402792:	53                   	push   %rbx
  402793:	bf 40 00 00 00       	mov    $0x40,%edi
  402798:	41 c1 fd 0a          	sar    $0xa,%r13d
  40279c:	48 83 ec 18          	sub    $0x18,%rsp
  4027a0:	e8 2b eb ff ff       	callq  4012d0 <malloc@plt>
  4027a5:	41 81 fd 00 90 01 00 	cmp    $0x19000,%r13d
  4027ac:	0f 8f e3 00 00 00    	jg     402895 <_Z16ud_mem_pool_initi+0x115>
  4027b2:	49 89 c6             	mov    %rax,%r14
  4027b5:	49 63 ff             	movslq %r15d,%rdi
  4027b8:	e8 13 eb ff ff       	callq  4012d0 <malloc@plt>
  4027bd:	bf 00 00 64 00       	mov    $0x640000,%edi
  4027c2:	49 89 46 08          	mov    %rax,0x8(%r14)
  4027c6:	49 89 c4             	mov    %rax,%r12
  4027c9:	e8 02 eb ff ff       	callq  4012d0 <malloc@plt>
  4027ce:	49 63 d5             	movslq %r13d,%rdx
  4027d1:	be 01 00 00 00       	mov    $0x1,%esi
  4027d6:	49 89 46 10          	mov    %rax,0x10(%r14)
  4027da:	48 89 d7             	mov    %rdx,%rdi
  4027dd:	48 89 55 c8          	mov    %rdx,-0x38(%rbp)
  4027e1:	48 89 45 c0          	mov    %rax,-0x40(%rbp)
  4027e5:	48 c1 e7 04          	shl    $0x4,%rdi
  4027e9:	e8 f2 e9 ff ff       	callq  4011e0 <calloc@plt>
  4027ee:	48 8b 55 c8          	mov    -0x38(%rbp),%rdx
  4027f2:	49 89 06             	mov    %rax,(%r14)
  4027f5:	48 89 c3             	mov    %rax,%rbx
  4027f8:	45 89 6e 24          	mov    %r13d,0x24(%r14)
  4027fc:	48 8d 3c 95 00 00 00 	lea    0x0(,%rdx,4),%rdi
  402803:	00 
  402804:	e8 c7 ea ff ff       	callq  4012d0 <malloc@plt>
  402809:	bf 90 01 00 00       	mov    $0x190,%edi
  40280e:	49 89 46 18          	mov    %rax,0x18(%r14)
  402812:	48 89 45 c8          	mov    %rax,-0x38(%rbp)
  402816:	e8 b5 ea ff ff       	callq  4012d0 <malloc@plt>
  40281b:	45 85 ed             	test   %r13d,%r13d
  40281e:	49 89 46 30          	mov    %rax,0x30(%r14)
  402822:	45 89 7e 28          	mov    %r15d,0x28(%r14)
  402826:	7e 5b                	jle    402883 <_Z16ud_mem_pool_initi+0x103>
  402828:	4c 8b 4d c0          	mov    -0x40(%rbp),%r9
  40282c:	4c 8b 55 c8          	mov    -0x38(%rbp),%r10
  402830:	4c 89 e6             	mov    %r12,%rsi
  402833:	48 89 d9             	mov    %rbx,%rcx
  402836:	45 31 c0             	xor    %r8d,%r8d
  402839:	31 d2                	xor    %edx,%edx
  40283b:	0f 1f 44 00 00       	nopl   0x0(%rax,%rax,1)
  402840:	48 83 fa 63          	cmp    $0x63,%rdx
  402844:	89 d7                	mov    %edx,%edi
  402846:	48 89 31             	mov    %rsi,(%rcx)
  402849:	77 0a                	ja     402855 <_Z16ud_mem_pool_initi+0xd5>
  40284b:	4d 63 d8             	movslq %r8d,%r11
  40284e:	4d 01 cb             	add    %r9,%r11
  402851:	4c 89 59 08          	mov    %r11,0x8(%rcx)
  402855:	41 89 3c 92          	mov    %edi,(%r10,%rdx,4)
  402859:	89 3c 90             	mov    %edi,(%rax,%rdx,4)
  40285c:	48 83 c2 01          	add    $0x1,%rdx
  402860:	48 81 c6 00 04 00 00 	add    $0x400,%rsi
  402867:	48 83 c1 10          	add    $0x10,%rcx
  40286b:	41 81 c0 00 00 01 00 	add    $0x10000,%r8d
  402872:	41 39 d5             	cmp    %edx,%r13d
  402875:	7f c9                	jg     402840 <_Z16ud_mem_pool_initi+0xc0>
  402877:	45 89 6e 20          	mov    %r13d,0x20(%r14)
  40287b:	41 c7 46 38 64 00 00 	movl   $0x64,0x38(%r14)
  402882:	00 
  402883:	48 83 c4 18          	add    $0x18,%rsp
  402887:	4c 89 f0             	mov    %r14,%rax
  40288a:	5b                   	pop    %rbx
  40288b:	41 5c                	pop    %r12
  40288d:	41 5d                	pop    %r13
  40288f:	41 5e                	pop    %r14
  402891:	41 5f                	pop    %r15
  402893:	5d                   	pop    %rbp
  402894:	c3                   	retq   
  402895:	bf 70 31 40 00       	mov    $0x403170,%edi
  40289a:	e8 71 ea ff ff       	callq  401310 <puts@plt>
  40289f:	bf ff ff ff ff       	mov    $0xffffffff,%edi
  4028a4:	e8 17 ea ff ff       	callq  4012c0 <exit@plt>
  4028a9:	0f 1f 80 00 00 00 00 	nopl   0x0(%rax)

00000000004028b0 <_Z14ud_mem_destroyP10mem_pool_s>:
  4028b0:	55                   	push   %rbp
  4028b1:	48 89 e5             	mov    %rsp,%rbp
  4028b4:	53                   	push   %rbx
  4028b5:	48 89 fb             	mov    %rdi,%rbx
  4028b8:	48 83 ec 08          	sub    $0x8,%rsp
  4028bc:	48 8b 3f             	mov    (%rdi),%rdi
  4028bf:	e8 dc e9 ff ff       	callq  4012a0 <free@plt>
  4028c4:	48 8b 7b 18          	mov    0x18(%rbx),%rdi
  4028c8:	e8 d3 e9 ff ff       	callq  4012a0 <free@plt>
  4028cd:	48 8b 7b 30          	mov    0x30(%rbx),%rdi
  4028d1:	e8 ca e9 ff ff       	callq  4012a0 <free@plt>
  4028d6:	48 8b 7b 08          	mov    0x8(%rbx),%rdi
  4028da:	e8 c1 e9 ff ff       	callq  4012a0 <free@plt>
  4028df:	48 8b 7b 10          	mov    0x10(%rbx),%rdi
  4028e3:	48 83 c4 08          	add    $0x8,%rsp
  4028e7:	5b                   	pop    %rbx
  4028e8:	5d                   	pop    %rbp
  4028e9:	e9 b2 e9 ff ff       	jmpq   4012a0 <free@plt>
  4028ee:	66 90                	xchg   %ax,%ax

00000000004028f0 <_Z13ud_mem_mallocP10mem_pool_s>:
  4028f0:	8b 57 20             	mov    0x20(%rdi),%edx
  4028f3:	85 d2                	test   %edx,%edx
  4028f5:	7e 1a                	jle    402911 <_Z13ud_mem_mallocP10mem_pool_s+0x21>
  4028f7:	48 8b 47 18          	mov    0x18(%rdi),%rax
  4028fb:	48 63 ca             	movslq %edx,%rcx
  4028fe:	83 ea 01             	sub    $0x1,%edx
  402901:	48 63 44 88 fc       	movslq -0x4(%rax,%rcx,4),%rax
  402906:	89 57 20             	mov    %edx,0x20(%rdi)
  402909:	48 c1 e0 04          	shl    $0x4,%rax
  40290d:	48 03 07             	add    (%rdi),%rax
  402910:	c3                   	retq   
  402911:	55                   	push   %rbp
  402912:	bf 95 31 40 00       	mov    $0x403195,%edi
  402917:	48 89 e5             	mov    %rsp,%rbp
  40291a:	e8 f1 e9 ff ff       	callq  401310 <puts@plt>
  40291f:	83 cf ff             	or     $0xffffffff,%edi
  402922:	e8 99 e9 ff ff       	callq  4012c0 <exit@plt>
  402927:	66 0f 1f 84 00 00 00 	nopw   0x0(%rax,%rax,1)
  40292e:	00 00 

0000000000402930 <_Z9ud_mallocP10mem_pool_s>:
  402930:	55                   	push   %rbp
  402931:	48 89 e5             	mov    %rsp,%rbp
  402934:	e8 b7 ff ff ff       	callq  4028f0 <_Z13ud_mem_mallocP10mem_pool_s>
  402939:	5d                   	pop    %rbp
  40293a:	48 8b 00             	mov    (%rax),%rax
  40293d:	c3                   	retq   
  40293e:	66 90                	xchg   %ax,%ax

0000000000402940 <_Z11ud_mem_freeP10mem_pool_sP11mem_index_s>:
  402940:	48 8b 06             	mov    (%rsi),%rax
  402943:	48 2b 47 08          	sub    0x8(%rdi),%rax
  402947:	48 63 4f 20          	movslq 0x20(%rdi),%rcx
  40294b:	48 8b 57 18          	mov    0x18(%rdi),%rdx
  40294f:	48 c1 f8 0a          	sar    $0xa,%rax
  402953:	89 04 8a             	mov    %eax,(%rdx,%rcx,4)
  402956:	83 47 20 01          	addl   $0x1,0x20(%rdi)
  40295a:	c3                   	retq   
  40295b:	0f 1f 44 00 00       	nopl   0x0(%rax,%rax,1)

0000000000402960 <_Z7ud_freeP10mem_pool_sPv>:
  402960:	48 2b 77 08          	sub    0x8(%rdi),%rsi
  402964:	48 63 57 20          	movslq 0x20(%rdi),%rdx
  402968:	48 8b 47 18          	mov    0x18(%rdi),%rax
  40296c:	48 c1 fe 0a          	sar    $0xa,%rsi
  402970:	89 34 90             	mov    %esi,(%rax,%rdx,4)
  402973:	83 47 20 01          	addl   $0x1,0x20(%rdi)
  402977:	c3                   	retq   
  402978:	0f 1f 84 00 00 00 00 	nopl   0x0(%rax,%rax,1)
  40297f:	00 

0000000000402980 <_Z15ud_malloc_largeP10mem_pool_s>:
  402980:	8b 47 38             	mov    0x38(%rdi),%eax
  402983:	85 c0                	test   %eax,%eax
  402985:	7e 1d                	jle    4029a4 <_Z15ud_malloc_largeP10mem_pool_s+0x24>
  402987:	48 8b 4f 30          	mov    0x30(%rdi),%rcx
  40298b:	83 e8 01             	sub    $0x1,%eax
  40298e:	48 8b 17             	mov    (%rdi),%rdx
  402991:	89 47 38             	mov    %eax,0x38(%rdi)
  402994:	48 98                	cltq   
  402996:	48 63 04 81          	movslq (%rcx,%rax,4),%rax
  40299a:	48 c1 e0 04          	shl    $0x4,%rax
  40299e:	48 8b 44 02 08       	mov    0x8(%rdx,%rax,1),%rax
  4029a3:	c3                   	retq   
  4029a4:	55                   	push   %rbp
  4029a5:	bf a3 31 40 00       	mov    $0x4031a3,%edi
  4029aa:	48 89 e5             	mov    %rsp,%rbp
  4029ad:	e8 5e e9 ff ff       	callq  401310 <puts@plt>
  4029b2:	83 cf ff             	or     $0xffffffff,%edi
  4029b5:	e8 06 e9 ff ff       	callq  4012c0 <exit@plt>
  4029ba:	66 0f 1f 44 00 00    	nopw   0x0(%rax,%rax,1)

00000000004029c0 <_Z13ud_free_largeP10mem_pool_sPv>:
  4029c0:	48 2b 77 10          	sub    0x10(%rdi),%rsi
  4029c4:	48 63 57 38          	movslq 0x38(%rdi),%rdx
  4029c8:	48 8b 47 30          	mov    0x30(%rdi),%rax
  4029cc:	48 c1 fe 10          	sar    $0x10,%rsi
  4029d0:	89 34 90             	mov    %esi,(%rax,%rdx,4)
  4029d3:	83 47 38 01          	addl   $0x1,0x38(%rdi)
  4029d7:	c3                   	retq   
  4029d8:	0f 1f 84 00 00 00 00 	nopl   0x0(%rax,%rax,1)
  4029df:	00 

00000000004029e0 <_Z4initii>:
  4029e0:	55                   	push   %rbp
  4029e1:	48 89 e5             	mov    %rsp,%rbp
  4029e4:	41 54                	push   %r12
  4029e6:	53                   	push   %rbx
  4029e7:	41 89 fc             	mov    %edi,%r12d
  4029ea:	bf 00 00 a0 00       	mov    $0xa00000,%edi
  4029ef:	89 f3                	mov    %esi,%ebx
  4029f1:	48 81 ec 10 01 00 00 	sub    $0x110,%rsp
  4029f8:	64 48 8b 04 25 28 00 	mov    %fs:0x28,%rax
  4029ff:	00 00 
  402a01:	48 89 45 e8          	mov    %rax,-0x18(%rbp)
  402a05:	31 c0                	xor    %eax,%eax
  402a07:	e8 74 fd ff ff       	callq  402780 <_Z16ud_mem_pool_initi>
  402a0c:	bf b8 31 40 00       	mov    $0x4031b8,%edi
  402a11:	48 89 05 a0 17 20 00 	mov    %rax,0x2017a0(%rip)        # 6041b8 <mem_pool>
  402a18:	e8 f3 e8 ff ff       	callq  401310 <puts@plt>
  402a1d:	48 8d 95 e0 fe ff ff 	lea    -0x120(%rbp),%rdx
  402a24:	44 89 e6             	mov    %r12d,%esi
  402a27:	bf cd 31 40 00       	mov    $0x4031cd,%edi
  402a2c:	e8 ff e7 ff ff       	callq  401230 <uv_ip4_addr@plt>
  402a31:	48 8b 3d f8 17 20 00 	mov    0x2017f8(%rip),%rdi        # 604230 <loop>
  402a38:	48 8d b5 f0 fe ff ff 	lea    -0x110(%rbp),%rsi
  402a3f:	e8 3c e8 ff ff       	callq  401280 <uv_tcp_init@plt>
  402a44:	48 8d b5 e0 fe ff ff 	lea    -0x120(%rbp),%rsi
  402a4b:	48 8d bd f0 fe ff ff 	lea    -0x110(%rbp),%rdi
  402a52:	31 d2                	xor    %edx,%edx
  402a54:	e8 d7 e6 ff ff       	callq  401130 <uv_tcp_bind@plt>
  402a59:	48 8d bd f0 fe ff ff 	lea    -0x110(%rbp),%rdi
  402a60:	ba d0 17 40 00       	mov    $0x4017d0,%edx
  402a65:	89 de                	mov    %ebx,%esi
  402a67:	e8 94 e7 ff ff       	callq  401200 <uv_listen@plt>
  402a6c:	85 c0                	test   %eax,%eax
  402a6e:	75 33                	jne    402aa3 <_Z4initii+0xc3>
  402a70:	bf e2 31 40 00       	mov    $0x4031e2,%edi
  402a75:	e8 96 e8 ff ff       	callq  401310 <puts@plt>
  402a7a:	48 8b 3d af 17 20 00 	mov    0x2017af(%rip),%rdi        # 604230 <loop>
  402a81:	31 f6                	xor    %esi,%esi
  402a83:	e8 c8 e6 ff ff       	callq  401150 <uv_run@plt>
  402a88:	48 8b 45 e8          	mov    -0x18(%rbp),%rax
  402a8c:	64 48 33 04 25 28 00 	xor    %fs:0x28,%rax
  402a93:	00 00 
  402a95:	75 1e                	jne    402ab5 <_Z4initii+0xd5>
  402a97:	48 81 c4 10 01 00 00 	add    $0x110,%rsp
  402a9e:	5b                   	pop    %rbx
  402a9f:	41 5c                	pop    %r12
  402aa1:	5d                   	pop    %rbp
  402aa2:	c3                   	retq   
  402aa3:	bf d5 31 40 00       	mov    $0x4031d5,%edi
  402aa8:	e8 63 e8 ff ff       	callq  401310 <puts@plt>
  402aad:	83 cf ff             	or     $0xffffffff,%edi
  402ab0:	e8 0b e8 ff ff       	callq  4012c0 <exit@plt>
  402ab5:	e8 d6 e7 ff ff       	callq  401290 <__stack_chk_fail@plt>
  402aba:	66 0f 1f 44 00 00    	nopw   0x0(%rax,%rax,1)

0000000000402ac0 <_Z9http_initv>:
  402ac0:	55                   	push   %rbp
  402ac1:	bf 20 00 00 00       	mov    $0x20,%edi
  402ac6:	48 89 e5             	mov    %rsp,%rbp
  402ac9:	e8 02 e8 ff ff       	callq  4012d0 <malloc@plt>
  402ace:	31 f6                	xor    %esi,%esi
  402ad0:	48 89 c7             	mov    %rax,%rdi
  402ad3:	48 89 05 e6 16 20 00 	mov    %rax,0x2016e6(%rip)        # 6041c0 <parser>
  402ada:	e8 b1 e8 ff ff       	callq  401390 <http_parser_init@plt>
  402adf:	5d                   	pop    %rbp
  402ae0:	bf f2 31 40 00       	mov    $0x4031f2,%edi
  402ae5:	48 c7 05 f0 16 20 00 	movq   $0x401850,0x2016f0(%rip)        # 6041e0 <settings>
  402aec:	50 18 40 00 
  402af0:	48 c7 05 1d 17 20 00 	movq   $0x401e50,0x20171d(%rip)        # 604218 <settings+0x38>
  402af7:	50 1e 40 00 
  402afb:	48 c7 05 e2 16 20 00 	movq   $0x401860,0x2016e2(%rip)        # 6041e8 <settings+0x8>
  402b02:	60 18 40 00 
  402b06:	48 c7 05 e7 16 20 00 	movq   $0x401990,0x2016e7(%rip)        # 6041f8 <settings+0x18>
  402b0d:	90 19 40 00 
  402b11:	48 c7 05 e4 16 20 00 	movq   $0x401ad0,0x2016e4(%rip)        # 604200 <settings+0x20>
  402b18:	d0 1a 40 00 
  402b1c:	48 c7 05 e9 16 20 00 	movq   $0x401a50,0x2016e9(%rip)        # 604210 <settings+0x30>
  402b23:	50 1a 40 00 
  402b27:	e9 e4 e7 ff ff       	jmpq   401310 <puts@plt>
  402b2c:	0f 1f 40 00          	nopl   0x0(%rax)

0000000000402b30 <_Z10my_handlerPKcP11uv_stream_s>:
  402b30:	48 89 fa             	mov    %rdi,%rdx
  402b33:	be 08 32 40 00       	mov    $0x403208,%esi
  402b38:	bf 01 00 00 00       	mov    $0x1,%edi
  402b3d:	31 c0                	xor    %eax,%eax
  402b3f:	e9 dc e5 ff ff       	jmpq   401120 <__printf_chk@plt>
  402b44:	66 90                	xchg   %ax,%ax
  402b46:	66 2e 0f 1f 84 00 00 	nopw   %cs:0x0(%rax,%rax,1)
  402b4d:	00 00 00 

0000000000402b50 <_Z9bench_memv>:
  402b50:	55                   	push   %rbp
  402b51:	bf 00 00 a0 00       	mov    $0xa00000,%edi
  402b56:	48 89 e5             	mov    %rsp,%rbp
  402b59:	41 57                	push   %r15
  402b5b:	41 56                	push   %r14
  402b5d:	41 55                	push   %r13
  402b5f:	41 54                	push   %r12
  402b61:	53                   	push   %rbx
  402b62:	48 83 ec 58          	sub    $0x58,%rsp
  402b66:	64 48 8b 04 25 28 00 	mov    %fs:0x28,%rax
  402b6d:	00 00 
  402b6f:	48 89 45 c8          	mov    %rax,-0x38(%rbp)
  402b73:	31 c0                	xor    %eax,%eax
  402b75:	e8 06 fc ff ff       	callq  402780 <_Z16ud_mem_pool_initi>
  402b7a:	48 8d 7d a0          	lea    -0x60(%rbp),%rdi
  402b7e:	31 f6                	xor    %esi,%esi
  402b80:	48 89 05 31 16 20 00 	mov    %rax,0x201631(%rip)        # 6041b8 <mem_pool>
  402b87:	e8 94 e7 ff ff       	callq  401320 <gettimeofday@plt>
  402b8c:	c7 45 84 50 c3 00 00 	movl   $0xc350,-0x7c(%rbp)
  402b93:	0f 1f 44 00 00       	nopl   0x0(%rax,%rax,1)
  402b98:	48 8b 3d 19 16 20 00 	mov    0x201619(%rip),%rdi        # 6041b8 <mem_pool>
  402b9f:	e8 4c fd ff ff       	callq  4028f0 <_Z13ud_mem_mallocP10mem_pool_s>
  402ba4:	48 8b 3d 0d 16 20 00 	mov    0x20160d(%rip),%rdi        # 6041b8 <mem_pool>
  402bab:	48 89 45 88          	mov    %rax,-0x78(%rbp)
  402baf:	e8 3c fd ff ff       	callq  4028f0 <_Z13ud_mem_mallocP10mem_pool_s>
  402bb4:	48 8b 3d fd 15 20 00 	mov    0x2015fd(%rip),%rdi        # 6041b8 <mem_pool>
  402bbb:	49 89 c7             	mov    %rax,%r15
  402bbe:	e8 2d fd ff ff       	callq  4028f0 <_Z13ud_mem_mallocP10mem_pool_s>
  402bc3:	48 8b 3d ee 15 20 00 	mov    0x2015ee(%rip),%rdi        # 6041b8 <mem_pool>
  402bca:	49 89 c6             	mov    %rax,%r14
  402bcd:	e8 1e fd ff ff       	callq  4028f0 <_Z13ud_mem_mallocP10mem_pool_s>
  402bd2:	48 8b 3d df 15 20 00 	mov    0x2015df(%rip),%rdi        # 6041b8 <mem_pool>
  402bd9:	49 89 c5             	mov    %rax,%r13
  402bdc:	e8 0f fd ff ff       	callq  4028f0 <_Z13ud_mem_mallocP10mem_pool_s>
  402be1:	48 8b 3d d0 15 20 00 	mov    0x2015d0(%rip),%rdi        # 6041b8 <mem_pool>
  402be8:	49 89 c4             	mov    %rax,%r12
  402beb:	e8 00 fd ff ff       	callq  4028f0 <_Z13ud_mem_mallocP10mem_pool_s>
  402bf0:	48 8b 3d c1 15 20 00 	mov    0x2015c1(%rip),%rdi        # 6041b8 <mem_pool>
  402bf7:	48 89 c3             	mov    %rax,%rbx
  402bfa:	e8 f1 fc ff ff       	callq  4028f0 <_Z13ud_mem_mallocP10mem_pool_s>
  402bff:	48 8b 3d b2 15 20 00 	mov    0x2015b2(%rip),%rdi        # 6041b8 <mem_pool>
  402c06:	48 89 45 98          	mov    %rax,-0x68(%rbp)
  402c0a:	e8 e1 fc ff ff       	callq  4028f0 <_Z13ud_mem_mallocP10mem_pool_s>
  402c0f:	48 8b 75 88          	mov    -0x78(%rbp),%rsi
  402c13:	48 8b 3d 9e 15 20 00 	mov    0x20159e(%rip),%rdi        # 6041b8 <mem_pool>
  402c1a:	48 89 45 90          	mov    %rax,-0x70(%rbp)
  402c1e:	e8 1d fd ff ff       	callq  402940 <_Z11ud_mem_freeP10mem_pool_sP11mem_index_s>
  402c23:	48 8b 3d 8e 15 20 00 	mov    0x20158e(%rip),%rdi        # 6041b8 <mem_pool>
  402c2a:	4c 89 fe             	mov    %r15,%rsi
  402c2d:	e8 0e fd ff ff       	callq  402940 <_Z11ud_mem_freeP10mem_pool_sP11mem_index_s>
  402c32:	48 8b 3d 7f 15 20 00 	mov    0x20157f(%rip),%rdi        # 6041b8 <mem_pool>
  402c39:	4c 89 f6             	mov    %r14,%rsi
  402c3c:	e8 ff fc ff ff       	callq  402940 <_Z11ud_mem_freeP10mem_pool_sP11mem_index_s>
  402c41:	48 8b 3d 70 15 20 00 	mov    0x201570(%rip),%rdi        # 6041b8 <mem_pool>
  402c48:	4c 89 ee             	mov    %r13,%rsi
  402c4b:	e8 f0 fc ff ff       	callq  402940 <_Z11ud_mem_freeP10mem_pool_sP11mem_index_s>
  402c50:	48 8b 3d 61 15 20 00 	mov    0x201561(%rip),%rdi        # 6041b8 <mem_pool>
  402c57:	4c 89 e6             	mov    %r12,%rsi
  402c5a:	e8 e1 fc ff ff       	callq  402940 <_Z11ud_mem_freeP10mem_pool_sP11mem_index_s>
  402c5f:	48 8b 3d 52 15 20 00 	mov    0x201552(%rip),%rdi        # 6041b8 <mem_pool>
  402c66:	48 89 de             	mov    %rbx,%rsi
  402c69:	e8 d2 fc ff ff       	callq  402940 <_Z11ud_mem_freeP10mem_pool_sP11mem_index_s>
  402c6e:	48 8b 75 98          	mov    -0x68(%rbp),%rsi
  402c72:	48 8b 3d 3f 15 20 00 	mov    0x20153f(%rip),%rdi        # 6041b8 <mem_pool>
  402c79:	e8 c2 fc ff ff       	callq  402940 <_Z11ud_mem_freeP10mem_pool_sP11mem_index_s>
  402c7e:	48 8b 45 90          	mov    -0x70(%rbp),%rax
  402c82:	48 8b 3d 2f 15 20 00 	mov    0x20152f(%rip),%rdi        # 6041b8 <mem_pool>
  402c89:	48 89 c6             	mov    %rax,%rsi
  402c8c:	e8 af fc ff ff       	callq  402940 <_Z11ud_mem_freeP10mem_pool_sP11mem_index_s>
  402c91:	83 6d 84 01          	subl   $0x1,-0x7c(%rbp)
  402c95:	0f 85 fd fe ff ff    	jne    402b98 <_Z9bench_memv+0x48>
  402c9b:	48 8d 7d b0          	lea    -0x50(%rbp),%rdi
  402c9f:	31 f6                	xor    %esi,%esi
  402ca1:	e8 7a e6 ff ff       	callq  401320 <gettimeofday@plt>
  402ca6:	48 8b 55 b0          	mov    -0x50(%rbp),%rdx
  402caa:	48 2b 55 a0          	sub    -0x60(%rbp),%rdx
  402cae:	be 38 32 40 00       	mov    $0x403238,%esi
  402cb3:	bf 01 00 00 00       	mov    $0x1,%edi
  402cb8:	31 c0                	xor    %eax,%eax
  402cba:	48 69 d2 40 42 0f 00 	imul   $0xf4240,%rdx,%rdx
  402cc1:	48 2b 55 a8          	sub    -0x58(%rbp),%rdx
  402cc5:	48 03 55 b8          	add    -0x48(%rbp),%rdx
  402cc9:	e8 52 e4 ff ff       	callq  401120 <__printf_chk@plt>
  402cce:	48 8b 3d e3 14 20 00 	mov    0x2014e3(%rip),%rdi        # 6041b8 <mem_pool>
  402cd5:	e8 d6 fb ff ff       	callq  4028b0 <_Z14ud_mem_destroyP10mem_pool_s>
  402cda:	48 8b 45 c8          	mov    -0x38(%rbp),%rax
  402cde:	64 48 33 04 25 28 00 	xor    %fs:0x28,%rax
  402ce5:	00 00 
  402ce7:	75 0f                	jne    402cf8 <_Z9bench_memv+0x1a8>
  402ce9:	48 83 c4 58          	add    $0x58,%rsp
  402ced:	5b                   	pop    %rbx
  402cee:	41 5c                	pop    %r12
  402cf0:	41 5d                	pop    %r13
  402cf2:	41 5e                	pop    %r14
  402cf4:	41 5f                	pop    %r15
  402cf6:	5d                   	pop    %rbp
  402cf7:	c3                   	retq   
  402cf8:	e8 93 e5 ff ff       	callq  401290 <__stack_chk_fail@plt>
  402cfd:	0f 1f 00             	nopl   (%rax)

0000000000402d00 <_Z11bench_mem_2v>:
  402d00:	55                   	push   %rbp
  402d01:	31 f6                	xor    %esi,%esi
  402d03:	48 89 e5             	mov    %rsp,%rbp
  402d06:	48 83 ec 30          	sub    $0x30,%rsp
  402d0a:	48 8d 7d d0          	lea    -0x30(%rbp),%rdi
  402d0e:	64 48 8b 04 25 28 00 	mov    %fs:0x28,%rax
  402d15:	00 00 
  402d17:	48 89 45 f8          	mov    %rax,-0x8(%rbp)
  402d1b:	31 c0                	xor    %eax,%eax
  402d1d:	e8 fe e5 ff ff       	callq  401320 <gettimeofday@plt>
  402d22:	48 8d 7d e0          	lea    -0x20(%rbp),%rdi
  402d26:	31 f6                	xor    %esi,%esi
  402d28:	e8 f3 e5 ff ff       	callq  401320 <gettimeofday@plt>
  402d2d:	48 8b 55 e0          	mov    -0x20(%rbp),%rdx
  402d31:	48 2b 55 d0          	sub    -0x30(%rbp),%rdx
  402d35:	31 c0                	xor    %eax,%eax
  402d37:	be 4c 32 40 00       	mov    $0x40324c,%esi
  402d3c:	bf 01 00 00 00       	mov    $0x1,%edi
  402d41:	48 69 d2 40 42 0f 00 	imul   $0xf4240,%rdx,%rdx
  402d48:	48 2b 55 d8          	sub    -0x28(%rbp),%rdx
  402d4c:	48 03 55 e8          	add    -0x18(%rbp),%rdx
  402d50:	e8 cb e3 ff ff       	callq  401120 <__printf_chk@plt>
  402d55:	48 8b 45 f8          	mov    -0x8(%rbp),%rax
  402d59:	64 48 33 04 25 28 00 	xor    %fs:0x28,%rax
  402d60:	00 00 
  402d62:	75 02                	jne    402d66 <_Z11bench_mem_2v+0x66>
  402d64:	c9                   	leaveq 
  402d65:	c3                   	retq   
  402d66:	e8 25 e5 ff ff       	callq  401290 <__stack_chk_fail@plt>
  402d6b:	0f 1f 44 00 00       	nopl   0x0(%rax,%rax,1)

0000000000402d70 <_Z10mpool_testv>:
  402d70:	55                   	push   %rbp
  402d71:	bf 00 00 a0 00       	mov    $0xa00000,%edi
  402d76:	48 89 e5             	mov    %rsp,%rbp
  402d79:	41 57                	push   %r15
  402d7b:	41 56                	push   %r14
  402d7d:	41 55                	push   %r13
  402d7f:	41 54                	push   %r12
  402d81:	53                   	push   %rbx
  402d82:	48 83 ec 28          	sub    $0x28,%rsp
  402d86:	e8 f5 f9 ff ff       	callq  402780 <_Z16ud_mem_pool_initi>
  402d8b:	48 89 c7             	mov    %rax,%rdi
  402d8e:	48 89 c3             	mov    %rax,%rbx
  402d91:	e8 ea fb ff ff       	callq  402980 <_Z15ud_malloc_largeP10mem_pool_s>
  402d96:	49 89 c4             	mov    %rax,%r12
  402d99:	b8 31 00 00 00       	mov    $0x31,%eax
  402d9e:	be 62 32 40 00       	mov    $0x403262,%esi
  402da3:	4c 89 e2             	mov    %r12,%rdx
  402da6:	66 41 89 04 24       	mov    %ax,(%r12)
  402dab:	bf 01 00 00 00       	mov    $0x1,%edi
  402db0:	31 c0                	xor    %eax,%eax
  402db2:	e8 69 e3 ff ff       	callq  401120 <__printf_chk@plt>
  402db7:	48 89 df             	mov    %rbx,%rdi
  402dba:	e8 c1 fb ff ff       	callq  402980 <_Z15ud_malloc_largeP10mem_pool_s>
  402dbf:	ba 32 00 00 00       	mov    $0x32,%edx
  402dc4:	49 89 c5             	mov    %rax,%r13
  402dc7:	be 62 32 40 00       	mov    $0x403262,%esi
  402dcc:	66 89 10             	mov    %dx,(%rax)
  402dcf:	48 89 c2             	mov    %rax,%rdx
  402dd2:	bf 01 00 00 00       	mov    $0x1,%edi
  402dd7:	4c 29 e2             	sub    %r12,%rdx
  402dda:	31 c0                	xor    %eax,%eax
  402ddc:	e8 3f e3 ff ff       	callq  401120 <__printf_chk@plt>
  402de1:	4c 89 ee             	mov    %r13,%rsi
  402de4:	48 89 df             	mov    %rbx,%rdi
  402de7:	e8 d4 fb ff ff       	callq  4029c0 <_Z13ud_free_largeP10mem_pool_sPv>
  402dec:	48 89 df             	mov    %rbx,%rdi
  402def:	e8 8c fb ff ff       	callq  402980 <_Z15ud_malloc_largeP10mem_pool_s>
  402df4:	b9 33 00 00 00       	mov    $0x33,%ecx
  402df9:	48 89 c2             	mov    %rax,%rdx
  402dfc:	be 62 32 40 00       	mov    $0x403262,%esi
  402e01:	4c 29 e2             	sub    %r12,%rdx
  402e04:	66 89 08             	mov    %cx,(%rax)
  402e07:	49 89 c6             	mov    %rax,%r14
  402e0a:	bf 01 00 00 00       	mov    $0x1,%edi
  402e0f:	31 c0                	xor    %eax,%eax
  402e11:	e8 0a e3 ff ff       	callq  401120 <__printf_chk@plt>
  402e16:	48 89 df             	mov    %rbx,%rdi
  402e19:	e8 62 fb ff ff       	callq  402980 <_Z15ud_malloc_largeP10mem_pool_s>
  402e1e:	bf 34 00 00 00       	mov    $0x34,%edi
  402e23:	48 89 45 b8          	mov    %rax,-0x48(%rbp)
  402e27:	66 89 38             	mov    %di,(%rax)
  402e2a:	48 89 df             	mov    %rbx,%rdi
  402e2d:	e8 4e fb ff ff       	callq  402980 <_Z15ud_malloc_largeP10mem_pool_s>
  402e32:	41 b8 35 00 00 00    	mov    $0x35,%r8d
  402e38:	48 89 df             	mov    %rbx,%rdi
  402e3b:	48 89 45 c0          	mov    %rax,-0x40(%rbp)
  402e3f:	66 44 89 00          	mov    %r8w,(%rax)
  402e43:	e8 38 fb ff ff       	callq  402980 <_Z15ud_malloc_largeP10mem_pool_s>
  402e48:	41 b9 36 00 00 00    	mov    $0x36,%r9d
  402e4e:	48 89 df             	mov    %rbx,%rdi
  402e51:	48 89 45 c8          	mov    %rax,-0x38(%rbp)
  402e55:	66 44 89 08          	mov    %r9w,(%rax)
  402e59:	e8 22 fb ff ff       	callq  402980 <_Z15ud_malloc_largeP10mem_pool_s>
  402e5e:	41 ba 37 00 00 00    	mov    $0x37,%r10d
  402e64:	48 89 df             	mov    %rbx,%rdi
  402e67:	49 89 c7             	mov    %rax,%r15
  402e6a:	66 44 89 10          	mov    %r10w,(%rax)
  402e6e:	e8 0d fb ff ff       	callq  402980 <_Z15ud_malloc_largeP10mem_pool_s>
  402e73:	41 bb 38 00 00 00    	mov    $0x38,%r11d
  402e79:	4c 89 e7             	mov    %r12,%rdi
  402e7c:	48 89 c3             	mov    %rax,%rbx
  402e7f:	66 44 89 18          	mov    %r11w,(%rax)
  402e83:	e8 88 e4 ff ff       	callq  401310 <puts@plt>
  402e88:	4c 89 ef             	mov    %r13,%rdi
  402e8b:	e8 80 e4 ff ff       	callq  401310 <puts@plt>
  402e90:	4c 89 f7             	mov    %r14,%rdi
  402e93:	e8 78 e4 ff ff       	callq  401310 <puts@plt>
  402e98:	48 8b 75 b8          	mov    -0x48(%rbp),%rsi
  402e9c:	48 89 f7             	mov    %rsi,%rdi
  402e9f:	e8 6c e4 ff ff       	callq  401310 <puts@plt>
  402ea4:	48 8b 4d c0          	mov    -0x40(%rbp),%rcx
  402ea8:	48 89 cf             	mov    %rcx,%rdi
  402eab:	e8 60 e4 ff ff       	callq  401310 <puts@plt>
  402eb0:	48 8b 55 c8          	mov    -0x38(%rbp),%rdx
  402eb4:	48 89 d7             	mov    %rdx,%rdi
  402eb7:	e8 54 e4 ff ff       	callq  401310 <puts@plt>
  402ebc:	4c 89 ff             	mov    %r15,%rdi
  402ebf:	e8 4c e4 ff ff       	callq  401310 <puts@plt>
  402ec4:	48 83 c4 28          	add    $0x28,%rsp
  402ec8:	48 89 df             	mov    %rbx,%rdi
  402ecb:	5b                   	pop    %rbx
  402ecc:	41 5c                	pop    %r12
  402ece:	41 5d                	pop    %r13
  402ed0:	41 5e                	pop    %r14
  402ed2:	41 5f                	pop    %r15
  402ed4:	5d                   	pop    %rbp
  402ed5:	e9 36 e4 ff ff       	jmpq   401310 <puts@plt>
  402eda:	66 0f 1f 44 00 00    	nopw   0x0(%rax,%rax,1)

0000000000402ee0 <_ZNSt6vectorIPFvPKcP11uv_stream_sESaIS5_EED1Ev>:
  402ee0:	48 8b 3f             	mov    (%rdi),%rdi
  402ee3:	48 85 ff             	test   %rdi,%rdi
  402ee6:	74 08                	je     402ef0 <_ZNSt6vectorIPFvPKcP11uv_stream_sESaIS5_EED1Ev+0x10>
  402ee8:	e9 63 e3 ff ff       	jmpq   401250 <_ZdlPv@plt>
  402eed:	0f 1f 00             	nopl   (%rax)
  402ef0:	f3 c3                	repz retq 
  402ef2:	66 2e 0f 1f 84 00 00 	nopw   %cs:0x0(%rax,%rax,1)
  402ef9:	00 00 00 
  402efc:	0f 1f 40 00          	nopl   0x0(%rax)

0000000000402f00 <__libc_csu_init>:
  402f00:	41 57                	push   %r15
  402f02:	41 56                	push   %r14
  402f04:	41 89 ff             	mov    %edi,%r15d
  402f07:	41 55                	push   %r13
  402f09:	41 54                	push   %r12
  402f0b:	4c 8d 25 b6 0e 20 00 	lea    0x200eb6(%rip),%r12        # 603dc8 <__frame_dummy_init_array_entry>
  402f12:	55                   	push   %rbp
  402f13:	48 8d 2d be 0e 20 00 	lea    0x200ebe(%rip),%rbp        # 603dd8 <__init_array_end>
  402f1a:	53                   	push   %rbx
  402f1b:	49 89 f6             	mov    %rsi,%r14
  402f1e:	49 89 d5             	mov    %rdx,%r13
  402f21:	4c 29 e5             	sub    %r12,%rbp
  402f24:	48 83 ec 08          	sub    $0x8,%rsp
  402f28:	48 c1 fd 03          	sar    $0x3,%rbp
  402f2c:	e8 b7 e1 ff ff       	callq  4010e8 <_init>
  402f31:	48 85 ed             	test   %rbp,%rbp
  402f34:	74 20                	je     402f56 <__libc_csu_init+0x56>
  402f36:	31 db                	xor    %ebx,%ebx
  402f38:	0f 1f 84 00 00 00 00 	nopl   0x0(%rax,%rax,1)
  402f3f:	00 
  402f40:	4c 89 ea             	mov    %r13,%rdx
  402f43:	4c 89 f6             	mov    %r14,%rsi
  402f46:	44 89 ff             	mov    %r15d,%edi
  402f49:	41 ff 14 dc          	callq  *(%r12,%rbx,8)
  402f4d:	48 83 c3 01          	add    $0x1,%rbx
  402f51:	48 39 eb             	cmp    %rbp,%rbx
  402f54:	75 ea                	jne    402f40 <__libc_csu_init+0x40>
  402f56:	48 83 c4 08          	add    $0x8,%rsp
  402f5a:	5b                   	pop    %rbx
  402f5b:	5d                   	pop    %rbp
  402f5c:	41 5c                	pop    %r12
  402f5e:	41 5d                	pop    %r13
  402f60:	41 5e                	pop    %r14
  402f62:	41 5f                	pop    %r15
  402f64:	c3                   	retq   
  402f65:	90                   	nop
  402f66:	66 2e 0f 1f 84 00 00 	nopw   %cs:0x0(%rax,%rax,1)
  402f6d:	00 00 00 

0000000000402f70 <__libc_csu_fini>:
  402f70:	f3 c3                	repz retq 

Disassembly of section .fini:

0000000000402f74 <_fini>:
  402f74:	48 83 ec 08          	sub    $0x8,%rsp
  402f78:	48 83 c4 08          	add    $0x8,%rsp
  402f7c:	c3                   	retq   
